

Microchip MPLAB XC8 Assembler V2.31 build 20201012212115 
                                                                                               Sat Feb 25 17:01:13 2023

Microchip MPLAB XC8 C Compiler v2.31 (Free license) build 20201012212115 Og1 
     1                           	processor	16F1939
     2                           	pagewidth 120
     3                           	opt	flic
     4                           	psect	idataBANK0,global,class=CODE,delta=2,noexec
     5                           	psect	cinit,global,class=CODE,merge=1,delta=2
     6                           	psect	dataBANK0,global,class=BANK0,space=1,delta=1,noexec
     7                           	psect	inittext,global,class=CODE,delta=2
     8                           	psect	cstackCOMMON,global,class=COMMON,space=1,delta=1,noexec
     9                           	psect	maintext,global,class=CODE,merge=1,split=1,delta=2
    10                           	psect	text1,local,class=CODE,merge=1,delta=2
    11                           	psect	text2,local,class=CODE,merge=1,delta=2
    12                           	psect	text3,local,class=CODE,merge=1,delta=2
    13                           	psect	text4,local,class=CODE,merge=1,delta=2
    14                           	psect	text5,local,class=CODE,merge=1,delta=2
    15                           	psect	text6,local,class=CODE,merge=1,delta=2
    16                           	psect	text7,local,class=CODE,merge=1,delta=2
    17                           	psect	config,global,abs,ovrld,class=CONFIG,space=4,delta=2,noexec
    18                           	dabs	1,0x7E,2
    19  0000                     
    20                           ; Version 2.20
    21                           ; Generated 12/02/2020 GMT
    22                           ; 
    23                           ; Copyright © 2020, Microchip Technology Inc. and its subsidiaries ("Microchip")
    24                           ; All rights reserved.
    25                           ; 
    26                           ; This software is developed by Microchip Technology Inc. and its subsidiaries ("Microch
      +                          ip").
    27                           ; 
    28                           ; Redistribution and use in source and binary forms, with or without modification, are
    29                           ; permitted provided that the following conditions are met:
    30                           ; 
    31                           ;     1. Redistributions of source code must retain the above copyright notice, this lis
      +                          t of
    32                           ;        conditions and the following disclaimer.
    33                           ; 
    34                           ;     2. Redistributions in binary form must reproduce the above copyright notice, this 
      +                          list
    35                           ;        of conditions and the following disclaimer in the documentation and/or other
    36                           ;        materials provided with the distribution.
    37                           ; 
    38                           ;     3. Microchip's name may not be used to endorse or promote products derived from th
      +                          is
    39                           ;        software without specific prior written permission.
    40                           ; 
    41                           ; THIS SOFTWARE IS PROVIDED BY MICROCHIP "AS IS" AND ANY EXPRESS OR IMPLIED WARRANTIES,
    42                           ; INCLUDING, BUT NOT LIMITED TO, THE IMPLIED WARRANTIES OF MERCHANTABILITY AND FITNESS F
      +                          OR
    43                           ; PURPOSE ARE DISCLAIMED.  IN NO EVENT SHALL MICROCHIP BE LIABLE FOR ANY DIRECT, INDIREC
      +                          T,
    44                           ; INCIDENTAL, SPECIAL, EXEMPLARY, OR CONSEQUENTIAL DAMAGES (INCLUDING BUT NOT LIMITED TO
    45                           ; PROCUREMENT OF SUBSTITUTE GOODS OR SERVICES; LOSS OF USE, DATA OR PROFITS; OR BUSINESS
    46                           ; INTERRUPTION) HOWSOEVER CAUSED AND ON ANY THEORY OF LIABILITY, WHETHER IN CONTRACT, ST
      +                          RICT
    47                           ; LIABILITY, OR TORT (INCLUDING NEGLIGENCE OR OTHERWISE) ARISING IN ANY WAY OUT OF THE U
      +                          SE OF
    48                           ; THIS SOFTWARE, EVEN IF ADVISED OF THE POSSIBILITY OF SUCH DAMAGE.
    49                           ; 
    50                           ; 
    51                           ; Code-generator required, PIC16F1939 Definitions
    52                           ; 
    53                           ; SFR Addresses
    54  0000                     	;# 
    55  0001                     	;# 
    56  0002                     	;# 
    57  0003                     	;# 
    58  0004                     	;# 
    59  0005                     	;# 
    60  0006                     	;# 
    61  0007                     	;# 
    62  0008                     	;# 
    63  0009                     	;# 
    64  000A                     	;# 
    65  000B                     	;# 
    66  000C                     	;# 
    67  000D                     	;# 
    68  000E                     	;# 
    69  000F                     	;# 
    70  0010                     	;# 
    71  0011                     	;# 
    72  0012                     	;# 
    73  0013                     	;# 
    74  0015                     	;# 
    75  0016                     	;# 
    76  0016                     	;# 
    77  0017                     	;# 
    78  0018                     	;# 
    79  0019                     	;# 
    80  001A                     	;# 
    81  001B                     	;# 
    82  001C                     	;# 
    83  001E                     	;# 
    84  001F                     	;# 
    85  008C                     	;# 
    86  008D                     	;# 
    87  008E                     	;# 
    88  008F                     	;# 
    89  0090                     	;# 
    90  0091                     	;# 
    91  0092                     	;# 
    92  0093                     	;# 
    93  0095                     	;# 
    94  0096                     	;# 
    95  0097                     	;# 
    96  0098                     	;# 
    97  0099                     	;# 
    98  009A                     	;# 
    99  009B                     	;# 
   100  009B                     	;# 
   101  009C                     	;# 
   102  009D                     	;# 
   103  009E                     	;# 
   104  010C                     	;# 
   105  010D                     	;# 
   106  010E                     	;# 
   107  010F                     	;# 
   108  0110                     	;# 
   109  0111                     	;# 
   110  0112                     	;# 
   111  0113                     	;# 
   112  0114                     	;# 
   113  0115                     	;# 
   114  0116                     	;# 
   115  0117                     	;# 
   116  0118                     	;# 
   117  0119                     	;# 
   118  011A                     	;# 
   119  011B                     	;# 
   120  011D                     	;# 
   121  018C                     	;# 
   122  018D                     	;# 
   123  018F                     	;# 
   124  0190                     	;# 
   125  0191                     	;# 
   126  0191                     	;# 
   127  0192                     	;# 
   128  0193                     	;# 
   129  0193                     	;# 
   130  0193                     	;# 
   131  0194                     	;# 
   132  0195                     	;# 
   133  0196                     	;# 
   134  0199                     	;# 
   135  019A                     	;# 
   136  019B                     	;# 
   137  019B                     	;# 
   138  019B                     	;# 
   139  019B                     	;# 
   140  019C                     	;# 
   141  019C                     	;# 
   142  019D                     	;# 
   143  019E                     	;# 
   144  019F                     	;# 
   145  020D                     	;# 
   146  0210                     	;# 
   147  0211                     	;# 
   148  0212                     	;# 
   149  0213                     	;# 
   150  0214                     	;# 
   151  0215                     	;# 
   152  0215                     	;# 
   153  0216                     	;# 
   154  0217                     	;# 
   155  0291                     	;# 
   156  0291                     	;# 
   157  0292                     	;# 
   158  0293                     	;# 
   159  0294                     	;# 
   160  0295                     	;# 
   161  0295                     	;# 
   162  0296                     	;# 
   163  0298                     	;# 
   164  0298                     	;# 
   165  0299                     	;# 
   166  029A                     	;# 
   167  029B                     	;# 
   168  029C                     	;# 
   169  029C                     	;# 
   170  029D                     	;# 
   171  029E                     	;# 
   172  029F                     	;# 
   173  0311                     	;# 
   174  0311                     	;# 
   175  0312                     	;# 
   176  0313                     	;# 
   177  0314                     	;# 
   178  0315                     	;# 
   179  0315                     	;# 
   180  0316                     	;# 
   181  0318                     	;# 
   182  0318                     	;# 
   183  0319                     	;# 
   184  031A                     	;# 
   185  031C                     	;# 
   186  031C                     	;# 
   187  031D                     	;# 
   188  031E                     	;# 
   189  0394                     	;# 
   190  0395                     	;# 
   191  0396                     	;# 
   192  0415                     	;# 
   193  0416                     	;# 
   194  0417                     	;# 
   195  041C                     	;# 
   196  041D                     	;# 
   197  041E                     	;# 
   198  0791                     	;# 
   199  0792                     	;# 
   200  0793                     	;# 
   201  0794                     	;# 
   202  0795                     	;# 
   203  0798                     	;# 
   204  0799                     	;# 
   205  079A                     	;# 
   206  07A0                     	;# 
   207  07A1                     	;# 
   208  07A2                     	;# 
   209  07A3                     	;# 
   210  07A4                     	;# 
   211  07A5                     	;# 
   212  07A6                     	;# 
   213  07A7                     	;# 
   214  07A8                     	;# 
   215  07A9                     	;# 
   216  07AA                     	;# 
   217  07AB                     	;# 
   218  0FE4                     	;# 
   219  0FE5                     	;# 
   220  0FE6                     	;# 
   221  0FE7                     	;# 
   222  0FE8                     	;# 
   223  0FE9                     	;# 
   224  0FEA                     	;# 
   225  0FEB                     	;# 
   226  0FED                     	;# 
   227  0FEE                     	;# 
   228  0FEF                     	;# 
   229  0000                     	;# 
   230  0001                     	;# 
   231  0002                     	;# 
   232  0003                     	;# 
   233  0004                     	;# 
   234  0005                     	;# 
   235  0006                     	;# 
   236  0007                     	;# 
   237  0008                     	;# 
   238  0009                     	;# 
   239  000A                     	;# 
   240  000B                     	;# 
   241  000C                     	;# 
   242  000D                     	;# 
   243  000E                     	;# 
   244  000F                     	;# 
   245  0010                     	;# 
   246  0011                     	;# 
   247  0012                     	;# 
   248  0013                     	;# 
   249  0015                     	;# 
   250  0016                     	;# 
   251  0016                     	;# 
   252  0017                     	;# 
   253  0018                     	;# 
   254  0019                     	;# 
   255  001A                     	;# 
   256  001B                     	;# 
   257  001C                     	;# 
   258  001E                     	;# 
   259  001F                     	;# 
   260  008C                     	;# 
   261  008D                     	;# 
   262  008E                     	;# 
   263  008F                     	;# 
   264  0090                     	;# 
   265  0091                     	;# 
   266  0092                     	;# 
   267  0093                     	;# 
   268  0095                     	;# 
   269  0096                     	;# 
   270  0097                     	;# 
   271  0098                     	;# 
   272  0099                     	;# 
   273  009A                     	;# 
   274  009B                     	;# 
   275  009B                     	;# 
   276  009C                     	;# 
   277  009D                     	;# 
   278  009E                     	;# 
   279  010C                     	;# 
   280  010D                     	;# 
   281  010E                     	;# 
   282  010F                     	;# 
   283  0110                     	;# 
   284  0111                     	;# 
   285  0112                     	;# 
   286  0113                     	;# 
   287  0114                     	;# 
   288  0115                     	;# 
   289  0116                     	;# 
   290  0117                     	;# 
   291  0118                     	;# 
   292  0119                     	;# 
   293  011A                     	;# 
   294  011B                     	;# 
   295  011D                     	;# 
   296  018C                     	;# 
   297  018D                     	;# 
   298  018F                     	;# 
   299  0190                     	;# 
   300  0191                     	;# 
   301  0191                     	;# 
   302  0192                     	;# 
   303  0193                     	;# 
   304  0193                     	;# 
   305  0193                     	;# 
   306  0194                     	;# 
   307  0195                     	;# 
   308  0196                     	;# 
   309  0199                     	;# 
   310  019A                     	;# 
   311  019B                     	;# 
   312  019B                     	;# 
   313  019B                     	;# 
   314  019B                     	;# 
   315  019C                     	;# 
   316  019C                     	;# 
   317  019D                     	;# 
   318  019E                     	;# 
   319  019F                     	;# 
   320  020D                     	;# 
   321  0210                     	;# 
   322  0211                     	;# 
   323  0212                     	;# 
   324  0213                     	;# 
   325  0214                     	;# 
   326  0215                     	;# 
   327  0215                     	;# 
   328  0216                     	;# 
   329  0217                     	;# 
   330  0291                     	;# 
   331  0291                     	;# 
   332  0292                     	;# 
   333  0293                     	;# 
   334  0294                     	;# 
   335  0295                     	;# 
   336  0295                     	;# 
   337  0296                     	;# 
   338  0298                     	;# 
   339  0298                     	;# 
   340  0299                     	;# 
   341  029A                     	;# 
   342  029B                     	;# 
   343  029C                     	;# 
   344  029C                     	;# 
   345  029D                     	;# 
   346  029E                     	;# 
   347  029F                     	;# 
   348  0311                     	;# 
   349  0311                     	;# 
   350  0312                     	;# 
   351  0313                     	;# 
   352  0314                     	;# 
   353  0315                     	;# 
   354  0315                     	;# 
   355  0316                     	;# 
   356  0318                     	;# 
   357  0318                     	;# 
   358  0319                     	;# 
   359  031A                     	;# 
   360  031C                     	;# 
   361  031C                     	;# 
   362  031D                     	;# 
   363  031E                     	;# 
   364  0394                     	;# 
   365  0395                     	;# 
   366  0396                     	;# 
   367  0415                     	;# 
   368  0416                     	;# 
   369  0417                     	;# 
   370  041C                     	;# 
   371  041D                     	;# 
   372  041E                     	;# 
   373  0791                     	;# 
   374  0792                     	;# 
   375  0793                     	;# 
   376  0794                     	;# 
   377  0795                     	;# 
   378  0798                     	;# 
   379  0799                     	;# 
   380  079A                     	;# 
   381  07A0                     	;# 
   382  07A1                     	;# 
   383  07A2                     	;# 
   384  07A3                     	;# 
   385  07A4                     	;# 
   386  07A5                     	;# 
   387  07A6                     	;# 
   388  07A7                     	;# 
   389  07A8                     	;# 
   390  07A9                     	;# 
   391  07AA                     	;# 
   392  07AB                     	;# 
   393  0FE4                     	;# 
   394  0FE5                     	;# 
   395  0FE6                     	;# 
   396  0FE7                     	;# 
   397  0FE8                     	;# 
   398  0FE9                     	;# 
   399  0FEA                     	;# 
   400  0FEB                     	;# 
   401  0FED                     	;# 
   402  0FEE                     	;# 
   403  0FEF                     	;# 
   404  0000                     	;# 
   405  0001                     	;# 
   406  0002                     	;# 
   407  0003                     	;# 
   408  0004                     	;# 
   409  0005                     	;# 
   410  0006                     	;# 
   411  0007                     	;# 
   412  0008                     	;# 
   413  0009                     	;# 
   414  000A                     	;# 
   415  000B                     	;# 
   416  000C                     	;# 
   417  000D                     	;# 
   418  000E                     	;# 
   419  000F                     	;# 
   420  0010                     	;# 
   421  0011                     	;# 
   422  0012                     	;# 
   423  0013                     	;# 
   424  0015                     	;# 
   425  0016                     	;# 
   426  0016                     	;# 
   427  0017                     	;# 
   428  0018                     	;# 
   429  0019                     	;# 
   430  001A                     	;# 
   431  001B                     	;# 
   432  001C                     	;# 
   433  001E                     	;# 
   434  001F                     	;# 
   435  008C                     	;# 
   436  008D                     	;# 
   437  008E                     	;# 
   438  008F                     	;# 
   439  0090                     	;# 
   440  0091                     	;# 
   441  0092                     	;# 
   442  0093                     	;# 
   443  0095                     	;# 
   444  0096                     	;# 
   445  0097                     	;# 
   446  0098                     	;# 
   447  0099                     	;# 
   448  009A                     	;# 
   449  009B                     	;# 
   450  009B                     	;# 
   451  009C                     	;# 
   452  009D                     	;# 
   453  009E                     	;# 
   454  010C                     	;# 
   455  010D                     	;# 
   456  010E                     	;# 
   457  010F                     	;# 
   458  0110                     	;# 
   459  0111                     	;# 
   460  0112                     	;# 
   461  0113                     	;# 
   462  0114                     	;# 
   463  0115                     	;# 
   464  0116                     	;# 
   465  0117                     	;# 
   466  0118                     	;# 
   467  0119                     	;# 
   468  011A                     	;# 
   469  011B                     	;# 
   470  011D                     	;# 
   471  018C                     	;# 
   472  018D                     	;# 
   473  018F                     	;# 
   474  0190                     	;# 
   475  0191                     	;# 
   476  0191                     	;# 
   477  0192                     	;# 
   478  0193                     	;# 
   479  0193                     	;# 
   480  0193                     	;# 
   481  0194                     	;# 
   482  0195                     	;# 
   483  0196                     	;# 
   484  0199                     	;# 
   485  019A                     	;# 
   486  019B                     	;# 
   487  019B                     	;# 
   488  019B                     	;# 
   489  019B                     	;# 
   490  019C                     	;# 
   491  019C                     	;# 
   492  019D                     	;# 
   493  019E                     	;# 
   494  019F                     	;# 
   495  020D                     	;# 
   496  0210                     	;# 
   497  0211                     	;# 
   498  0212                     	;# 
   499  0213                     	;# 
   500  0214                     	;# 
   501  0215                     	;# 
   502  0215                     	;# 
   503  0216                     	;# 
   504  0217                     	;# 
   505  0291                     	;# 
   506  0291                     	;# 
   507  0292                     	;# 
   508  0293                     	;# 
   509  0294                     	;# 
   510  0295                     	;# 
   511  0295                     	;# 
   512  0296                     	;# 
   513  0298                     	;# 
   514  0298                     	;# 
   515  0299                     	;# 
   516  029A                     	;# 
   517  029B                     	;# 
   518  029C                     	;# 
   519  029C                     	;# 
   520  029D                     	;# 
   521  029E                     	;# 
   522  029F                     	;# 
   523  0311                     	;# 
   524  0311                     	;# 
   525  0312                     	;# 
   526  0313                     	;# 
   527  0314                     	;# 
   528  0315                     	;# 
   529  0315                     	;# 
   530  0316                     	;# 
   531  0318                     	;# 
   532  0318                     	;# 
   533  0319                     	;# 
   534  031A                     	;# 
   535  031C                     	;# 
   536  031C                     	;# 
   537  031D                     	;# 
   538  031E                     	;# 
   539  0394                     	;# 
   540  0395                     	;# 
   541  0396                     	;# 
   542  0415                     	;# 
   543  0416                     	;# 
   544  0417                     	;# 
   545  041C                     	;# 
   546  041D                     	;# 
   547  041E                     	;# 
   548  0791                     	;# 
   549  0792                     	;# 
   550  0793                     	;# 
   551  0794                     	;# 
   552  0795                     	;# 
   553  0798                     	;# 
   554  0799                     	;# 
   555  079A                     	;# 
   556  07A0                     	;# 
   557  07A1                     	;# 
   558  07A2                     	;# 
   559  07A3                     	;# 
   560  07A4                     	;# 
   561  07A5                     	;# 
   562  07A6                     	;# 
   563  07A7                     	;# 
   564  07A8                     	;# 
   565  07A9                     	;# 
   566  07AA                     	;# 
   567  07AB                     	;# 
   568  0FE4                     	;# 
   569  0FE5                     	;# 
   570  0FE6                     	;# 
   571  0FE7                     	;# 
   572  0FE8                     	;# 
   573  0FE9                     	;# 
   574  0FEA                     	;# 
   575  0FEB                     	;# 
   576  0FED                     	;# 
   577  0FEE                     	;# 
   578  0FEF                     	;# 
   579  0000                     	;# 
   580  0001                     	;# 
   581  0002                     	;# 
   582  0003                     	;# 
   583  0004                     	;# 
   584  0005                     	;# 
   585  0006                     	;# 
   586  0007                     	;# 
   587  0008                     	;# 
   588  0009                     	;# 
   589  000A                     	;# 
   590  000B                     	;# 
   591  000C                     	;# 
   592  000D                     	;# 
   593  000E                     	;# 
   594  000F                     	;# 
   595  0010                     	;# 
   596  0011                     	;# 
   597  0012                     	;# 
   598  0013                     	;# 
   599  0015                     	;# 
   600  0016                     	;# 
   601  0016                     	;# 
   602  0017                     	;# 
   603  0018                     	;# 
   604  0019                     	;# 
   605  001A                     	;# 
   606  001B                     	;# 
   607  001C                     	;# 
   608  001E                     	;# 
   609  001F                     	;# 
   610  008C                     	;# 
   611  008D                     	;# 
   612  008E                     	;# 
   613  008F                     	;# 
   614  0090                     	;# 
   615  0091                     	;# 
   616  0092                     	;# 
   617  0093                     	;# 
   618  0095                     	;# 
   619  0096                     	;# 
   620  0097                     	;# 
   621  0098                     	;# 
   622  0099                     	;# 
   623  009A                     	;# 
   624  009B                     	;# 
   625  009B                     	;# 
   626  009C                     	;# 
   627  009D                     	;# 
   628  009E                     	;# 
   629  010C                     	;# 
   630  010D                     	;# 
   631  010E                     	;# 
   632  010F                     	;# 
   633  0110                     	;# 
   634  0111                     	;# 
   635  0112                     	;# 
   636  0113                     	;# 
   637  0114                     	;# 
   638  0115                     	;# 
   639  0116                     	;# 
   640  0117                     	;# 
   641  0118                     	;# 
   642  0119                     	;# 
   643  011A                     	;# 
   644  011B                     	;# 
   645  011D                     	;# 
   646  018C                     	;# 
   647  018D                     	;# 
   648  018F                     	;# 
   649  0190                     	;# 
   650  0191                     	;# 
   651  0191                     	;# 
   652  0192                     	;# 
   653  0193                     	;# 
   654  0193                     	;# 
   655  0193                     	;# 
   656  0194                     	;# 
   657  0195                     	;# 
   658  0196                     	;# 
   659  0199                     	;# 
   660  019A                     	;# 
   661  019B                     	;# 
   662  019B                     	;# 
   663  019B                     	;# 
   664  019B                     	;# 
   665  019C                     	;# 
   666  019C                     	;# 
   667  019D                     	;# 
   668  019E                     	;# 
   669  019F                     	;# 
   670  020D                     	;# 
   671  0210                     	;# 
   672  0211                     	;# 
   673  0212                     	;# 
   674  0213                     	;# 
   675  0214                     	;# 
   676  0215                     	;# 
   677  0215                     	;# 
   678  0216                     	;# 
   679  0217                     	;# 
   680  0291                     	;# 
   681  0291                     	;# 
   682  0292                     	;# 
   683  0293                     	;# 
   684  0294                     	;# 
   685  0295                     	;# 
   686  0295                     	;# 
   687  0296                     	;# 
   688  0298                     	;# 
   689  0298                     	;# 
   690  0299                     	;# 
   691  029A                     	;# 
   692  029B                     	;# 
   693  029C                     	;# 
   694  029C                     	;# 
   695  029D                     	;# 
   696  029E                     	;# 
   697  029F                     	;# 
   698  0311                     	;# 
   699  0311                     	;# 
   700  0312                     	;# 
   701  0313                     	;# 
   702  0314                     	;# 
   703  0315                     	;# 
   704  0315                     	;# 
   705  0316                     	;# 
   706  0318                     	;# 
   707  0318                     	;# 
   708  0319                     	;# 
   709  031A                     	;# 
   710  031C                     	;# 
   711  031C                     	;# 
   712  031D                     	;# 
   713  031E                     	;# 
   714  0394                     	;# 
   715  0395                     	;# 
   716  0396                     	;# 
   717  0415                     	;# 
   718  0416                     	;# 
   719  0417                     	;# 
   720  041C                     	;# 
   721  041D                     	;# 
   722  041E                     	;# 
   723  0791                     	;# 
   724  0792                     	;# 
   725  0793                     	;# 
   726  0794                     	;# 
   727  0795                     	;# 
   728  0798                     	;# 
   729  0799                     	;# 
   730  079A                     	;# 
   731  07A0                     	;# 
   732  07A1                     	;# 
   733  07A2                     	;# 
   734  07A3                     	;# 
   735  07A4                     	;# 
   736  07A5                     	;# 
   737  07A6                     	;# 
   738  07A7                     	;# 
   739  07A8                     	;# 
   740  07A9                     	;# 
   741  07AA                     	;# 
   742  07AB                     	;# 
   743  0FE4                     	;# 
   744  0FE5                     	;# 
   745  0FE6                     	;# 
   746  0FE7                     	;# 
   747  0FE8                     	;# 
   748  0FE9                     	;# 
   749  0FEA                     	;# 
   750  0FEB                     	;# 
   751  0FED                     	;# 
   752  0FEE                     	;# 
   753  0FEF                     	;# 
   754                           
   755                           	psect	idataBANK0
   756  03F9                     __pidataBANK0:
   757                           
   758                           ;initializer for _chars
   759  03F9  342E               	retlw	46
   760  03FA  3430               	retlw	48
   761  03FB  342E               	retlw	46
   762  03FC  3431               	retlw	49
   763  03FD  3420               	retlw	32
   764  03FE  3432               	retlw	50
   765  03FF  3420               	retlw	32
   766  0400  3433               	retlw	51
   767  0401  3420               	retlw	32
   768  0402  3434               	retlw	52
   769  0403  3420               	retlw	32
   770  0404  3435               	retlw	53
   771  0405  342E               	retlw	46
   772  0406  3436               	retlw	54
   773  0407  3420               	retlw	32
   774  0408  3437               	retlw	55
   775  0409  3420               	retlw	32
   776  040A  346B               	retlw	107
   777  040B  3420               	retlw	32
   778  040C  3468               	retlw	104
   779  007E                     _RD6	set	126
   780  007F                     _RD7	set	127
   781  0068                     _RB0	set	104
   782  0069                     _RB1	set	105
   783  006A                     _RB2	set	106
   784  006B                     _RB3	set	107
   785  006C                     _RB4	set	108
   786  006D                     _RB5	set	109
   787  006E                     _RB6	set	110
   788  006F                     _RB7	set	111
   789  0072                     _RC2	set	114
   790  0071                     _RC1	set	113
   791  0070                     _RC0	set	112
   792  0066                     _RA6	set	102
   793  0082                     _RE2	set	130
   794  0081                     _RE1	set	129
   795  0080                     _RE0	set	128
   796  0065                     _RA5	set	101
   797  0063                     _RA3	set	99
   798  0062                     _RA2	set	98
   799  0061                     _RA1	set	97
   800  0060                     _RA0	set	96
   801  0078                     _RD0	set	120
   802  0067                     _RA7	set	103
   803  0064                     _RA4	set	100
   804  0097                     _WDTCON	set	151
   805  0098                     _OSCTUNE	set	152
   806  0099                     _OSCCON	set	153
   807  0095                     _OPTION_REGbits	set	149
   808  008F                     _TRISD	set	143
   809  008E                     _TRISC	set	142
   810  008D                     _TRISB	set	141
   811  008C                     _TRISA	set	140
   812  0090                     _TRISE	set	144
   813  0116                     _BORCON	set	278
   814  011D                     _APFCON	set	285
   815  010E                     _LATC	set	270
   816  010D                     _LATB	set	269
   817  010C                     _LATA	set	268
   818  010F                     _LATD	set	271
   819  0110                     _LATE	set	272
   820  018C                     _ANSELA	set	396
   821  0190                     _ANSELE	set	400
   822  018D                     _ANSELB	set	397
   823  018F                     _ANSELD	set	399
   824  020D                     _WPUB	set	525
   825  0210                     _WPUE	set	528
   826                           
   827                           	psect	cinit
   828  07F1                     start_initialization:	
   829                           ; #config settings
   830                           
   831  07F1                     __initialization:
   832                           
   833                           ; Initialize objects allocated to BANK0
   834  07F1  30F9               	movlw	low __pidataBANK0
   835  07F2  0084               	movwf	4
   836  07F3  3083               	movlw	(high __pidataBANK0)| (0+128)
   837  07F4  0085               	movwf	5
   838  07F5  3020               	movlw	low __pdataBANK0
   839  07F6  0086               	movwf	6
   840  07F7  3000               	movlw	high __pdataBANK0
   841  07F8  0087               	movwf	7
   842  07F9  3014               	movlw	20
   843  07FA  3183  23E2  3187   	fcall	init_ram
   844  07FD                     end_of_initialization:	
   845                           ;End of C runtime variable initialization code
   846                           
   847  07FD                     __end_of__initialization:
   848  07FD  0020               	movlb	0
   849  07FE  3184  2CBD         	ljmp	_main	;jump to C main() function
   850                           
   851                           	psect	dataBANK0
   852  0020                     __pdataBANK0:
   853  0020                     _chars:
   854  0020                     	ds	20
   855                           
   856                           	psect	inittext
   857  03E2                     init_ram:
   858  03E2  00FE               	movwf	btemp
   859  03E3                     initloop:
   860  03E3  0012               	moviw fsr0++
   861  03E4  001E               	movwi fsr1++
   862  03E5  0BFE               	decfsz	btemp,f
   863  03E6  2BE3               	goto	initloop
   864  03E7  3400               	retlw	0
   865                           
   866                           	psect	cstackCOMMON
   867  0070                     __pcstackCOMMON:
   868  0070                     ?_OSCILLATOR_Initialize:
   869  0070                     ??_OSCILLATOR_Initialize:	
   870                           ; 1 bytes @ 0x0
   871                           
   872  0070                     ?_WDT_Initialize:	
   873                           ; 1 bytes @ 0x0
   874                           
   875  0070                     ??_WDT_Initialize:	
   876                           ; 1 bytes @ 0x0
   877                           
   878  0070                     ?_off_digit:	
   879                           ; 1 bytes @ 0x0
   880                           
   881  0070                     ??_off_digit:	
   882                           ; 1 bytes @ 0x0
   883                           
   884  0070                     ?_on_digit:	
   885                           ; 1 bytes @ 0x0
   886                           
   887  0070                     ??_on_digit:	
   888                           ; 1 bytes @ 0x0
   889                           
   890  0070                     ?_PIN_MANAGER_Initialize:	
   891                           ; 1 bytes @ 0x0
   892                           
   893  0070                     ??_PIN_MANAGER_Initialize:	
   894                           ; 1 bytes @ 0x0
   895                           
   896  0070                     ?_SYSTEM_Initialize:	
   897                           ; 1 bytes @ 0x0
   898                           
   899  0070                     ??_SYSTEM_Initialize:	
   900                           ; 1 bytes @ 0x0
   901                           
   902  0070                     ?_main:	
   903                           ; 1 bytes @ 0x0
   904                           
   905                           
   906                           ; 1 bytes @ 0x0
   907  0070                     	ds	2
   908  0072                     on_digit@digit:
   909  0072                     off_digit@digit:	
   910                           ; 1 bytes @ 0x2
   911                           
   912                           
   913                           ; 1 bytes @ 0x2
   914  0072                     	ds	1
   915  0073                     ?_show_character:
   916  0073                     show_character@character:	
   917                           ; 1 bytes @ 0x3
   918                           
   919                           
   920                           ; 1 bytes @ 0x3
   921  0073                     	ds	1
   922  0074                     show_character@digit:
   923                           
   924                           ; 1 bytes @ 0x4
   925  0074                     	ds	1
   926  0075                     ??_show_character:
   927                           
   928                           ; 1 bytes @ 0x5
   929  0075                     	ds	2
   930  0077                     show_character@dot:
   931                           
   932                           ; 1 bytes @ 0x7
   933  0077                     	ds	1
   934  0078                     show_character@group:
   935                           
   936                           ; 1 bytes @ 0x8
   937  0078                     	ds	1
   938  0079                     ??_main:
   939                           
   940                           ; 1 bytes @ 0x9
   941  0079                     	ds	2
   942                           
   943                           	psect	maintext
   944  04BD                     __pmaintext:	
   945 ;;
   946 ;;Main: autosize = 0, tempsize = 2, incstack = 0, save=0
   947 ;;
   948 ;; *************** function _main *****************
   949 ;; Defined at:
   950 ;;		line 95 in file "main.c"
   951 ;; Parameters:    Size  Location     Type
   952 ;;		None
   953 ;; Auto vars:     Size  Location     Type
   954 ;;		None
   955 ;; Return value:  Size  Location     Type
   956 ;;                  1    wreg      void 
   957 ;; Registers used:
   958 ;;		wreg, fsr0l, fsr0h, status,2, status,0, pclath, cstack
   959 ;; Tracked objects:
   960 ;;		On entry : B1F/0
   961 ;;		On exit  : 0/0
   962 ;;		Unchanged: 0/0
   963 ;; Data sizes:     COMMON   BANK0   BANK1   BANK2   BANK3   BANK4   BANK5   BANK6   BANK7   BANK8   BANK9  BANK10  BANK1
      +1  BANK12
   964 ;;      Params:         0       0       0       0       0       0       0       0       0       0       0       0       
      +0       0
   965 ;;      Locals:         0       0       0       0       0       0       0       0       0       0       0       0       
      +0       0
   966 ;;      Temps:          2       0       0       0       0       0       0       0       0       0       0       0       
      +0       0
   967 ;;      Totals:         2       0       0       0       0       0       0       0       0       0       0       0       
      +0       0
   968 ;;Total ram usage:        2 bytes
   969 ;; Hardware stack levels required when called:    2
   970 ;; This function calls:
   971 ;;		_SYSTEM_Initialize
   972 ;;		_off_digit
   973 ;;		_show_character
   974 ;; This function is called by:
   975 ;;		Startup code after reset
   976 ;; This function uses a non-reentrant model
   977 ;;
   978                           
   979                           
   980                           ;psect for function _main
   981  04BD                     _main:
   982  04BD                     l1586:	
   983                           ;incstack = 0
   984                           ; Regs used in _main: [wreg-fsr0h+status,2+status,0+pclath+cstack]
   985                           
   986                           
   987                           ;main.c: 98:   SYSTEM_Initialize();
   988  04BD  3183  23EF  3184   	fcall	_SYSTEM_Initialize
   989  04C0                     l1588:
   990                           
   991                           ;main.c: 116:   {;main.c: 117:     show_character(chars[0], chars[1], 0);
   992  04C0  0020               	movlb	0	; select bank0
   993  04C1  0821               	movf	_chars+1,w
   994  04C2  00F9               	movwf	??_main
   995  04C3  0879               	movf	??_main,w
   996  04C4  00F3               	movwf	show_character@character
   997  04C5  01F4               	clrf	show_character@digit
   998  04C6  0820               	movf	_chars,w
   999  04C7  3185  2594  3184   	fcall	_show_character
  1000  04CA                     l1590:
  1001                           
  1002                           ;main.c: 118:     show_character(chars[8], chars[9], 4);
  1003  04CA  0020               	movlb	0	; select bank0
  1004  04CB  0829               	movf	_chars+9,w
  1005  04CC  00F9               	movwf	??_main
  1006  04CD  0879               	movf	??_main,w
  1007  04CE  00F3               	movwf	show_character@character
  1008  04CF  3004               	movlw	4
  1009  04D0  00FA               	movwf	??_main+1
  1010  04D1  087A               	movf	??_main+1,w
  1011  04D2  00F4               	movwf	show_character@digit
  1012  04D3  0828               	movf	_chars+8,w
  1013  04D4  3185  2594  3184   	fcall	_show_character
  1014  04D7                     l1592:
  1015                           
  1016                           ;main.c: 119:     show_character(chars[16], chars[17], 8);
  1017  04D7  0020               	movlb	0	; select bank0
  1018  04D8  0831               	movf	_chars+17,w
  1019  04D9  00F9               	movwf	??_main
  1020  04DA  0879               	movf	??_main,w
  1021  04DB  00F3               	movwf	show_character@character
  1022  04DC  3008               	movlw	8
  1023  04DD  00FA               	movwf	??_main+1
  1024  04DE  087A               	movf	??_main+1,w
  1025  04DF  00F4               	movwf	show_character@digit
  1026  04E0  0830               	movf	_chars+16,w
  1027  04E1  3185  2594  3184   	fcall	_show_character
  1028  04E4                     l1594:
  1029                           
  1030                           ;main.c: 120:     _delay((unsigned long)((800)*(8000000/4000000.0)));
  1031  04E4  30E4               	movlw	228
  1032  04E5                     u77:
  1033  04E5  3200               	nop2
  1034  04E6  3200               	nop2
  1035  04E7  0B89               	decfsz	9,f
  1036  04E8  2CE5               	goto	u77
  1037  04E9  3200               	nop2
  1038  04EA  3200               	nop2
  1039  04EB                     l1596:
  1040                           
  1041                           ;main.c: 121:     off_digit(0);
  1042  04EB  3000               	movlw	0
  1043  04EC  3184  2427  3184   	fcall	_off_digit
  1044  04EF                     l1598:
  1045                           
  1046                           ;main.c: 122:     off_digit(4);
  1047  04EF  3004               	movlw	4
  1048  04F0  3184  2427  3184   	fcall	_off_digit
  1049  04F3                     l1600:
  1050                           
  1051                           ;main.c: 123:     off_digit(8);
  1052  04F3  3008               	movlw	8
  1053  04F4  3184  2427  3184   	fcall	_off_digit
  1054  04F7                     l1602:
  1055                           
  1056                           ;main.c: 124:     _delay((unsigned long)((200)*(8000000/4000000.0)));
  1057  04F7  3085               	movlw	133
  1058  04F8                     u87:
  1059  04F8  0B89               	decfsz	9,f
  1060  04F9  2CF8               	goto	u87
  1061  04FA  0000               	nop
  1062  04FB                     l1604:
  1063                           
  1064                           ;main.c: 126:     show_character(chars[2], chars[3], 1);
  1065  04FB  0020               	movlb	0	; select bank0
  1066  04FC  0823               	movf	_chars+3,w
  1067  04FD  00F9               	movwf	??_main
  1068  04FE  0879               	movf	??_main,w
  1069  04FF  00F3               	movwf	show_character@character
  1070  0500  01F4               	clrf	show_character@digit
  1071  0501  0AF4               	incf	show_character@digit,f
  1072  0502  0822               	movf	_chars+2,w
  1073  0503  3185  2594  3184   	fcall	_show_character
  1074  0506                     l1606:
  1075                           
  1076                           ;main.c: 127:     show_character(chars[10], chars[11], 5);
  1077  0506  0020               	movlb	0	; select bank0
  1078  0507  082B               	movf	_chars+11,w
  1079  0508  00F9               	movwf	??_main
  1080  0509  0879               	movf	??_main,w
  1081  050A  00F3               	movwf	show_character@character
  1082  050B  3005               	movlw	5
  1083  050C  00FA               	movwf	??_main+1
  1084  050D  087A               	movf	??_main+1,w
  1085  050E  00F4               	movwf	show_character@digit
  1086  050F  082A               	movf	_chars+10,w
  1087  0510  3185  2594  3184   	fcall	_show_character
  1088  0513                     l1608:
  1089                           
  1090                           ;main.c: 128:     show_character(chars[18], chars[19], 9);
  1091  0513  0020               	movlb	0	; select bank0
  1092  0514  0833               	movf	_chars+19,w
  1093  0515  00F9               	movwf	??_main
  1094  0516  0879               	movf	??_main,w
  1095  0517  00F3               	movwf	show_character@character
  1096  0518  3009               	movlw	9
  1097  0519  00FA               	movwf	??_main+1
  1098  051A  087A               	movf	??_main+1,w
  1099  051B  00F4               	movwf	show_character@digit
  1100  051C  0832               	movf	_chars+18,w
  1101  051D  3185  2594  3184   	fcall	_show_character
  1102  0520                     l1610:
  1103                           
  1104                           ;main.c: 129:     _delay((unsigned long)((800)*(8000000/4000000.0)));
  1105  0520  30E4               	movlw	228
  1106  0521                     u97:
  1107  0521  3200               	nop2
  1108  0522  3200               	nop2
  1109  0523  0B89               	decfsz	9,f
  1110  0524  2D21               	goto	u97
  1111  0525  3200               	nop2
  1112  0526  3200               	nop2
  1113  0527                     l1612:
  1114                           
  1115                           ;main.c: 130:     off_digit(1);
  1116  0527  3001               	movlw	1
  1117  0528  3184  2427  3184   	fcall	_off_digit
  1118  052B                     l1614:
  1119                           
  1120                           ;main.c: 131:     off_digit(5);
  1121  052B  3005               	movlw	5
  1122  052C  3184  2427  3184   	fcall	_off_digit
  1123  052F                     l1616:
  1124                           
  1125                           ;main.c: 132:     off_digit(9);
  1126  052F  3009               	movlw	9
  1127  0530  3184  2427  3184   	fcall	_off_digit
  1128  0533                     l1618:
  1129                           
  1130                           ;main.c: 133:     _delay((unsigned long)((200)*(8000000/4000000.0)));
  1131  0533  3085               	movlw	133
  1132  0534                     u107:
  1133  0534  0B89               	decfsz	9,f
  1134  0535  2D34               	goto	u107
  1135  0536  0000               	nop
  1136  0537                     l1620:
  1137                           
  1138                           ;main.c: 135:     show_character(chars[4], chars[5], 2);
  1139  0537  0020               	movlb	0	; select bank0
  1140  0538  0825               	movf	_chars+5,w
  1141  0539  00F9               	movwf	??_main
  1142  053A  0879               	movf	??_main,w
  1143  053B  00F3               	movwf	show_character@character
  1144  053C  3002               	movlw	2
  1145  053D  00FA               	movwf	??_main+1
  1146  053E  087A               	movf	??_main+1,w
  1147  053F  00F4               	movwf	show_character@digit
  1148  0540  0824               	movf	_chars+4,w
  1149  0541  3185  2594  3184   	fcall	_show_character
  1150  0544                     l1622:
  1151                           
  1152                           ;main.c: 136:     show_character(chars[12], chars[13], 6);
  1153  0544  0020               	movlb	0	; select bank0
  1154  0545  082D               	movf	_chars+13,w
  1155  0546  00F9               	movwf	??_main
  1156  0547  0879               	movf	??_main,w
  1157  0548  00F3               	movwf	show_character@character
  1158  0549  3006               	movlw	6
  1159  054A  00FA               	movwf	??_main+1
  1160  054B  087A               	movf	??_main+1,w
  1161  054C  00F4               	movwf	show_character@digit
  1162  054D  082C               	movf	_chars+12,w
  1163  054E  3185  2594  3184   	fcall	_show_character
  1164  0551                     l1624:
  1165                           
  1166                           ;main.c: 137:     _delay((unsigned long)((800)*(8000000/4000000.0)));
  1167  0551  30E4               	movlw	228
  1168  0552                     u117:
  1169  0552  3200               	nop2
  1170  0553  3200               	nop2
  1171  0554  0B89               	decfsz	9,f
  1172  0555  2D52               	goto	u117
  1173  0556  3200               	nop2
  1174  0557  3200               	nop2
  1175  0558                     l1626:
  1176                           
  1177                           ;main.c: 138:     off_digit(2);
  1178  0558  3002               	movlw	2
  1179  0559  3184  2427  3184   	fcall	_off_digit
  1180  055C                     l1628:
  1181                           
  1182                           ;main.c: 139:     off_digit(6);
  1183  055C  3006               	movlw	6
  1184  055D  3184  2427  3184   	fcall	_off_digit
  1185  0560                     l1630:
  1186                           
  1187                           ;main.c: 140:     _delay((unsigned long)((200)*(8000000/4000000.0)));
  1188  0560  3085               	movlw	133
  1189  0561                     u127:
  1190  0561  0B89               	decfsz	9,f
  1191  0562  2D61               	goto	u127
  1192  0563  0000               	nop
  1193  0564                     l1632:
  1194                           
  1195                           ;main.c: 142:     show_character(chars[6], chars[7], 3);
  1196  0564  0020               	movlb	0	; select bank0
  1197  0565  0827               	movf	_chars+7,w
  1198  0566  00F9               	movwf	??_main
  1199  0567  0879               	movf	??_main,w
  1200  0568  00F3               	movwf	show_character@character
  1201  0569  3003               	movlw	3
  1202  056A  00FA               	movwf	??_main+1
  1203  056B  087A               	movf	??_main+1,w
  1204  056C  00F4               	movwf	show_character@digit
  1205  056D  0826               	movf	_chars+6,w
  1206  056E  3185  2594  3184   	fcall	_show_character
  1207  0571                     l1634:
  1208                           
  1209                           ;main.c: 143:     show_character(chars[14], chars[15], 7);
  1210  0571  0020               	movlb	0	; select bank0
  1211  0572  082F               	movf	_chars+15,w
  1212  0573  00F9               	movwf	??_main
  1213  0574  0879               	movf	??_main,w
  1214  0575  00F3               	movwf	show_character@character
  1215  0576  3007               	movlw	7
  1216  0577  00FA               	movwf	??_main+1
  1217  0578  087A               	movf	??_main+1,w
  1218  0579  00F4               	movwf	show_character@digit
  1219  057A  082E               	movf	_chars+14,w
  1220  057B  3185  2594  3184   	fcall	_show_character
  1221  057E                     l1636:
  1222                           
  1223                           ;main.c: 144:     _delay((unsigned long)((800)*(8000000/4000000.0)));
  1224  057E  30E4               	movlw	228
  1225  057F                     u137:
  1226  057F  3200               	nop2
  1227  0580  3200               	nop2
  1228  0581  0B89               	decfsz	9,f
  1229  0582  2D7F               	goto	u137
  1230  0583  3200               	nop2
  1231  0584  3200               	nop2
  1232  0585                     l1638:
  1233                           
  1234                           ;main.c: 145:     off_digit(3);
  1235  0585  3003               	movlw	3
  1236  0586  3184  2427  3184   	fcall	_off_digit
  1237  0589                     l1640:
  1238                           
  1239                           ;main.c: 146:     off_digit(7);
  1240  0589  3007               	movlw	7
  1241  058A  3184  2427  3184   	fcall	_off_digit
  1242  058D                     l1642:
  1243                           
  1244                           ;main.c: 147:     _delay((unsigned long)((200)*(8000000/4000000.0)));
  1245  058D  3085               	movlw	133
  1246  058E                     u147:
  1247  058E  0B89               	decfsz	9,f
  1248  058F  2D8E               	goto	u147
  1249  0590  0000               	nop
  1250  0591  2CC0               	goto	l1588
  1251  0592  3180  2802         	ljmp	start
  1252  0594                     __end_of_main:
  1253                           
  1254                           	psect	text1
  1255  0594                     __ptext1:	
  1256 ;; *************** function _show_character *****************
  1257 ;; Defined at:
  1258 ;;		line 157 in file "main.c"
  1259 ;; Parameters:    Size  Location     Type
  1260 ;;  dot             1    wreg     unsigned char 
  1261 ;;  character       1    3[COMMON] unsigned char 
  1262 ;;  digit           1    4[COMMON] char 
  1263 ;; Auto vars:     Size  Location     Type
  1264 ;;  dot             1    7[COMMON] unsigned char 
  1265 ;;  group           1    8[COMMON] enum E2954
  1266 ;; Return value:  Size  Location     Type
  1267 ;;                  1    wreg      void 
  1268 ;; Registers used:
  1269 ;;		wreg, fsr0l, fsr0h, status,2, status,0, pclath, cstack
  1270 ;; Tracked objects:
  1271 ;;		On entry : 0/0
  1272 ;;		On exit  : 0/0
  1273 ;;		Unchanged: 0/0
  1274 ;; Data sizes:     COMMON   BANK0   BANK1   BANK2   BANK3   BANK4   BANK5   BANK6   BANK7   BANK8   BANK9  BANK10  BANK1
      +1  BANK12
  1275 ;;      Params:         2       0       0       0       0       0       0       0       0       0       0       0       
      +0       0
  1276 ;;      Locals:         2       0       0       0       0       0       0       0       0       0       0       0       
      +0       0
  1277 ;;      Temps:          2       0       0       0       0       0       0       0       0       0       0       0       
      +0       0
  1278 ;;      Totals:         6       0       0       0       0       0       0       0       0       0       0       0       
      +0       0
  1279 ;;Total ram usage:        6 bytes
  1280 ;; Hardware stack levels used:    1
  1281 ;; Hardware stack levels required when called:    1
  1282 ;; This function calls:
  1283 ;;		_on_digit
  1284 ;; This function is called by:
  1285 ;;		_main
  1286 ;; This function uses a non-reentrant model
  1287 ;;
  1288                           
  1289                           
  1290                           ;psect for function _show_character
  1291  0594                     _show_character:
  1292                           
  1293                           ;incstack = 0
  1294                           ; Regs used in _show_character: [wreg-fsr0h+status,2+status,0+pclath+cstack]
  1295                           ;show_character@dot stored from wreg
  1296  0594  00F7               	movwf	show_character@dot
  1297  0595                     l1458:
  1298                           
  1299                           ;main.c: 157: void show_character(char dot, char character, signed char digit);main.c: 1
      +                          58: {;main.c: 160:   NIXIE_GLOUP group;;main.c: 161:   if (digit < 4)
  1300  0595  0874               	movf	show_character@digit,w
  1301  0596  3A80               	xorlw	128
  1302  0597  3E7C               	addlw	-132
  1303  0598  1803               	skipnc
  1304  0599  2D9B               	goto	u41
  1305  059A  2D9C               	goto	u40
  1306  059B                     u41:
  1307  059B  2D9E               	goto	l1462
  1308  059C                     u40:
  1309  059C                     l1460:
  1310                           
  1311                           ;main.c: 162:   {;main.c: 163:     group = UPPER;
  1312  059C  01F8               	clrf	show_character@group
  1313                           
  1314                           ;main.c: 164:   }
  1315  059D  2DAC               	goto	l1468
  1316  059E                     l1462:
  1317  059E  0874               	movf	show_character@digit,w
  1318  059F  3A80               	xorlw	128
  1319  05A0  3E78               	addlw	-136
  1320  05A1  1803               	skipnc
  1321  05A2  2DA4               	goto	u51
  1322  05A3  2DA5               	goto	u50
  1323  05A4                     u51:
  1324  05A4  2DA8               	goto	l1466
  1325  05A5                     u50:
  1326  05A5                     l1464:
  1327                           
  1328                           ;main.c: 166:   {;main.c: 167:     group = MIDDLE;
  1329  05A5  01F8               	clrf	show_character@group
  1330  05A6  0AF8               	incf	show_character@group,f
  1331                           
  1332                           ;main.c: 168:   }
  1333  05A7  2DAC               	goto	l1468
  1334  05A8                     l1466:
  1335                           
  1336                           ;main.c: 170:   {;main.c: 171:     group = LOWER;
  1337  05A8  3002               	movlw	2
  1338  05A9  00F5               	movwf	??_show_character
  1339  05AA  0875               	movf	??_show_character,w
  1340  05AB  00F8               	movwf	show_character@group
  1341  05AC                     l1468:
  1342                           
  1343                           ;main.c: 175:   if (dot == '.')
  1344  05AC  302E               	movlw	46
  1345  05AD  0677               	xorwf	show_character@dot,w
  1346  05AE  1D03               	btfss	3,2
  1347  05AF  2DB1               	goto	u61
  1348  05B0  2DB2               	goto	u60
  1349  05B1                     u61:
  1350  05B1  2DD8               	goto	l1478
  1351  05B2                     u60:
  1352  05B2  2DBC               	goto	l1474
  1353  05B3                     l144:	
  1354                           ;main.c: 178:     {;main.c: 179:     case UPPER:
  1355                           
  1356                           
  1357                           ;main.c: 180:       RA4 = 1;
  1358  05B3  0020               	movlb	0	; select bank0
  1359  05B4  160C               	bsf	12,4	;volatile
  1360                           
  1361                           ;main.c: 181:       break;
  1362  05B5  2F8B               	goto	l1526
  1363  05B6                     l146:	
  1364                           ;main.c: 182:     case MIDDLE:
  1365                           
  1366                           
  1367                           ;main.c: 183:       RA7 = 1;
  1368  05B6  0020               	movlb	0	; select bank0
  1369  05B7  178C               	bsf	12,7	;volatile
  1370                           
  1371                           ;main.c: 184:       break;
  1372  05B8  2F8B               	goto	l1526
  1373  05B9                     l147:	
  1374                           ;main.c: 185:     case LOWER:
  1375                           
  1376                           
  1377                           ;main.c: 186:       RD0 = 1;
  1378  05B9  0020               	movlb	0	; select bank0
  1379  05BA  140F               	bsf	15,0	;volatile
  1380  05BB  2F8B               	goto	l1526
  1381  05BC                     l1474:
  1382  05BC  0878               	movf	show_character@group,w
  1383  05BD  00F5               	movwf	??_show_character
  1384  05BE  01F6               	clrf	??_show_character+1
  1385                           
  1386                           ; Switch on 2 bytes has been partitioned into a top level switch of size 1, and 1 sub-sw
      +                          itches
  1387                           ; Switch size 1, requested type "simple"
  1388                           ; Number of cases is 1, Range of values is 0 to 0
  1389                           ; switch strategies available:
  1390                           ; Name         Instructions Cycles
  1391                           ; simple_byte            4     3 (average)
  1392                           ; direct_byte            8     6 (fixed)
  1393                           ; jumptable            260     6 (fixed)
  1394                           ;	Chosen strategy is simple_byte
  1395  05BF  0876               	movf	??_show_character+1,w
  1396  05C0  3A00               	xorlw	0	; case 0
  1397  05C1  1903               	skipnz
  1398  05C2  2DC4               	goto	l1964
  1399  05C3  2DEB               	goto	l149
  1400  05C4                     l1964:
  1401                           
  1402                           ; Switch size 1, requested type "simple"
  1403                           ; Number of cases is 3, Range of values is 0 to 2
  1404                           ; switch strategies available:
  1405                           ; Name         Instructions Cycles
  1406                           ; simple_byte           10     6 (average)
  1407                           ; direct_byte           12     6 (fixed)
  1408                           ; jumptable            260     6 (fixed)
  1409                           ;	Chosen strategy is simple_byte
  1410  05C4  0875               	movf	??_show_character,w
  1411  05C5  3A00               	xorlw	0	; case 0
  1412  05C6  1903               	skipnz
  1413  05C7  2DB3               	goto	l144
  1414  05C8  3A01               	xorlw	1	; case 1
  1415  05C9  1903               	skipnz
  1416  05CA  2DB6               	goto	l146
  1417  05CB  3A03               	xorlw	3	; case 2
  1418  05CC  1903               	skipnz
  1419  05CD  2DB9               	goto	l147
  1420  05CE  2DEB               	goto	l149
  1421  05CF                     l151:	
  1422                           ;main.c: 194:     {;main.c: 195:     case UPPER:
  1423                           
  1424                           
  1425                           ;main.c: 196:       RA4 = 0;
  1426  05CF  0020               	movlb	0	; select bank0
  1427  05D0  120C               	bcf	12,4	;volatile
  1428                           
  1429                           ;main.c: 197:       break;
  1430  05D1  2F8B               	goto	l1526
  1431  05D2                     l153:	
  1432                           ;main.c: 198:     case MIDDLE:
  1433                           
  1434                           
  1435                           ;main.c: 199:       RA7 = 0;
  1436  05D2  0020               	movlb	0	; select bank0
  1437  05D3  138C               	bcf	12,7	;volatile
  1438                           
  1439                           ;main.c: 200:       break;
  1440  05D4  2F8B               	goto	l1526
  1441  05D5                     l154:	
  1442                           ;main.c: 201:     case LOWER:
  1443                           
  1444                           
  1445                           ;main.c: 202:       RD0 = 0;
  1446  05D5  0020               	movlb	0	; select bank0
  1447  05D6  100F               	bcf	15,0	;volatile
  1448  05D7  2F8B               	goto	l1526
  1449  05D8                     l1478:
  1450  05D8  0878               	movf	show_character@group,w
  1451  05D9  00F5               	movwf	??_show_character
  1452  05DA  01F6               	clrf	??_show_character+1
  1453                           
  1454                           ; Switch on 2 bytes has been partitioned into a top level switch of size 1, and 1 sub-sw
      +                          itches
  1455                           ; Switch size 1, requested type "simple"
  1456                           ; Number of cases is 1, Range of values is 0 to 0
  1457                           ; switch strategies available:
  1458                           ; Name         Instructions Cycles
  1459                           ; simple_byte            4     3 (average)
  1460                           ; direct_byte            8     6 (fixed)
  1461                           ; jumptable            260     6 (fixed)
  1462                           ;	Chosen strategy is simple_byte
  1463  05DB  0876               	movf	??_show_character+1,w
  1464  05DC  3A00               	xorlw	0	; case 0
  1465  05DD  1903               	skipnz
  1466  05DE  2DE0               	goto	l1966
  1467  05DF  2DEB               	goto	l149
  1468  05E0                     l1966:
  1469                           
  1470                           ; Switch size 1, requested type "simple"
  1471                           ; Number of cases is 3, Range of values is 0 to 2
  1472                           ; switch strategies available:
  1473                           ; Name         Instructions Cycles
  1474                           ; simple_byte           10     6 (average)
  1475                           ; direct_byte           12     6 (fixed)
  1476                           ; jumptable            260     6 (fixed)
  1477                           ;	Chosen strategy is simple_byte
  1478  05E0  0875               	movf	??_show_character,w
  1479  05E1  3A00               	xorlw	0	; case 0
  1480  05E2  1903               	skipnz
  1481  05E3  2DCF               	goto	l151
  1482  05E4  3A01               	xorlw	1	; case 1
  1483  05E5  1903               	skipnz
  1484  05E6  2DD2               	goto	l153
  1485  05E7  3A03               	xorlw	3	; case 2
  1486  05E8  1903               	skipnz
  1487  05E9  2DD5               	goto	l154
  1488  05EA  2DEB               	goto	l149
  1489  05EB                     l149:	
  1490                           ;main.c: 206:   }
  1491                           
  1492                           
  1493                           ;main.c: 209:   switch (character)
  1494  05EB  2F8B               	goto	l1526
  1495  05EC                     l159:	
  1496                           ;main.c: 213:   case 'W':
  1497                           
  1498                           
  1499                           ;main.c: 215:     switch (group)
  1500  05EC  2DFF               	goto	l1482
  1501  05ED                     l161:	
  1502                           ;main.c: 216:     {;main.c: 217:     case UPPER:
  1503                           
  1504                           
  1505                           ;main.c: 218:       RA0 = 0;
  1506  05ED  0020               	movlb	0	; select bank0
  1507  05EE  100C               	bcf	12,0	;volatile
  1508                           
  1509                           ;main.c: 219:       RA1 = 0;
  1510  05EF  108C               	bcf	12,1	;volatile
  1511                           
  1512                           ;main.c: 220:       RA2 = 0;
  1513  05F0  110C               	bcf	12,2	;volatile
  1514                           
  1515                           ;main.c: 221:       RA3 = 0;
  1516  05F1  118C               	bcf	12,3	;volatile
  1517                           
  1518                           ;main.c: 222:       break;
  1519  05F2  2FEC               	goto	l1528
  1520  05F3                     l163:	
  1521                           ;main.c: 224:     case MIDDLE:
  1522                           
  1523                           
  1524                           ;main.c: 225:       RA5 = 0;
  1525  05F3  0020               	movlb	0	; select bank0
  1526  05F4  128C               	bcf	12,5	;volatile
  1527                           
  1528                           ;main.c: 226:       RE0 = 0;
  1529  05F5  1010               	bcf	16,0	;volatile
  1530                           
  1531                           ;main.c: 227:       RE1 = 0;
  1532  05F6  1090               	bcf	16,1	;volatile
  1533                           
  1534                           ;main.c: 228:       RE2 = 0;
  1535  05F7  1110               	bcf	16,2	;volatile
  1536                           
  1537                           ;main.c: 229:       break;
  1538  05F8  2FEC               	goto	l1528
  1539  05F9                     l164:	
  1540                           ;main.c: 231:     case LOWER:
  1541                           
  1542                           
  1543                           ;main.c: 232:       RA6 = 0;
  1544  05F9  0020               	movlb	0	; select bank0
  1545  05FA  130C               	bcf	12,6	;volatile
  1546                           
  1547                           ;main.c: 233:       RC0 = 0;
  1548  05FB  100E               	bcf	14,0	;volatile
  1549                           
  1550                           ;main.c: 234:       RC1 = 0;
  1551  05FC  108E               	bcf	14,1	;volatile
  1552                           
  1553                           ;main.c: 235:       RC2 = 0;
  1554  05FD  110E               	bcf	14,2	;volatile
  1555                           
  1556                           ;main.c: 236:       break;
  1557  05FE  2FEC               	goto	l1528
  1558  05FF                     l1482:
  1559  05FF  0878               	movf	show_character@group,w
  1560  0600  00F5               	movwf	??_show_character
  1561  0601  01F6               	clrf	??_show_character+1
  1562                           
  1563                           ; Switch on 2 bytes has been partitioned into a top level switch of size 1, and 1 sub-sw
      +                          itches
  1564                           ; Switch size 1, requested type "simple"
  1565                           ; Number of cases is 1, Range of values is 0 to 0
  1566                           ; switch strategies available:
  1567                           ; Name         Instructions Cycles
  1568                           ; simple_byte            4     3 (average)
  1569                           ; direct_byte            8     6 (fixed)
  1570                           ; jumptable            260     6 (fixed)
  1571                           ;	Chosen strategy is simple_byte
  1572  0602  0876               	movf	??_show_character+1,w
  1573  0603  3A00               	xorlw	0	; case 0
  1574  0604  1903               	skipnz
  1575  0605  2E07               	goto	l1968
  1576  0606  2FEC               	goto	l1528
  1577  0607                     l1968:
  1578                           
  1579                           ; Switch size 1, requested type "simple"
  1580                           ; Number of cases is 3, Range of values is 0 to 2
  1581                           ; switch strategies available:
  1582                           ; Name         Instructions Cycles
  1583                           ; simple_byte           10     6 (average)
  1584                           ; direct_byte           12     6 (fixed)
  1585                           ; jumptable            260     6 (fixed)
  1586                           ;	Chosen strategy is simple_byte
  1587  0607  0875               	movf	??_show_character,w
  1588  0608  3A00               	xorlw	0	; case 0
  1589  0609  1903               	skipnz
  1590  060A  2DED               	goto	l161
  1591  060B  3A01               	xorlw	1	; case 1
  1592  060C  1903               	skipnz
  1593  060D  2DF3               	goto	l163
  1594  060E  3A03               	xorlw	3	; case 2
  1595  060F  1903               	skipnz
  1596  0610  2DF9               	goto	l164
  1597  0611  2FEC               	goto	l1528
  1598  0612                     l169:	
  1599                           ;main.c: 245:   case 'A':
  1600                           
  1601                           
  1602                           ;main.c: 246:     switch (group)
  1603  0612  2E25               	goto	l1486
  1604  0613                     l171:	
  1605                           ;main.c: 247:     {;main.c: 248:     case UPPER:
  1606                           
  1607                           
  1608                           ;main.c: 249:       RA0 = 0;
  1609  0613  0020               	movlb	0	; select bank0
  1610  0614  100C               	bcf	12,0	;volatile
  1611                           
  1612                           ;main.c: 250:       RA1 = 0;
  1613  0615  108C               	bcf	12,1	;volatile
  1614                           
  1615                           ;main.c: 251:       RA2 = 0;
  1616  0616  110C               	bcf	12,2	;volatile
  1617                           
  1618                           ;main.c: 252:       RA3 = 1;
  1619  0617  158C               	bsf	12,3	;volatile
  1620                           
  1621                           ;main.c: 253:       break;
  1622  0618  2FEC               	goto	l1528
  1623  0619                     l173:	
  1624                           ;main.c: 255:     case MIDDLE:
  1625                           
  1626                           
  1627                           ;main.c: 256:       RA5 = 0;
  1628  0619  0020               	movlb	0	; select bank0
  1629  061A  128C               	bcf	12,5	;volatile
  1630                           
  1631                           ;main.c: 257:       RE0 = 0;
  1632  061B  1010               	bcf	16,0	;volatile
  1633                           
  1634                           ;main.c: 258:       RE1 = 0;
  1635  061C  1090               	bcf	16,1	;volatile
  1636                           
  1637                           ;main.c: 259:       RE2 = 1;
  1638  061D  1510               	bsf	16,2	;volatile
  1639                           
  1640                           ;main.c: 260:       break;
  1641  061E  2FEC               	goto	l1528
  1642  061F                     l174:	
  1643                           ;main.c: 262:     case LOWER:
  1644                           
  1645                           
  1646                           ;main.c: 263:       RA6 = 0;
  1647  061F  0020               	movlb	0	; select bank0
  1648  0620  130C               	bcf	12,6	;volatile
  1649                           
  1650                           ;main.c: 264:       RC0 = 0;
  1651  0621  100E               	bcf	14,0	;volatile
  1652                           
  1653                           ;main.c: 265:       RC1 = 0;
  1654  0622  108E               	bcf	14,1	;volatile
  1655                           
  1656                           ;main.c: 266:       RC2 = 1;
  1657  0623  150E               	bsf	14,2	;volatile
  1658                           
  1659                           ;main.c: 267:       break;
  1660  0624  2FEC               	goto	l1528
  1661  0625                     l1486:
  1662  0625  0878               	movf	show_character@group,w
  1663  0626  00F5               	movwf	??_show_character
  1664  0627  01F6               	clrf	??_show_character+1
  1665                           
  1666                           ; Switch on 2 bytes has been partitioned into a top level switch of size 1, and 1 sub-sw
      +                          itches
  1667                           ; Switch size 1, requested type "simple"
  1668                           ; Number of cases is 1, Range of values is 0 to 0
  1669                           ; switch strategies available:
  1670                           ; Name         Instructions Cycles
  1671                           ; simple_byte            4     3 (average)
  1672                           ; direct_byte            8     6 (fixed)
  1673                           ; jumptable            260     6 (fixed)
  1674                           ;	Chosen strategy is simple_byte
  1675  0628  0876               	movf	??_show_character+1,w
  1676  0629  3A00               	xorlw	0	; case 0
  1677  062A  1903               	skipnz
  1678  062B  2E2D               	goto	l1970
  1679  062C  2FEC               	goto	l1528
  1680  062D                     l1970:
  1681                           
  1682                           ; Switch size 1, requested type "simple"
  1683                           ; Number of cases is 3, Range of values is 0 to 2
  1684                           ; switch strategies available:
  1685                           ; Name         Instructions Cycles
  1686                           ; simple_byte           10     6 (average)
  1687                           ; direct_byte           12     6 (fixed)
  1688                           ; jumptable            260     6 (fixed)
  1689                           ;	Chosen strategy is simple_byte
  1690  062D  0875               	movf	??_show_character,w
  1691  062E  3A00               	xorlw	0	; case 0
  1692  062F  1903               	skipnz
  1693  0630  2E13               	goto	l171
  1694  0631  3A01               	xorlw	1	; case 1
  1695  0632  1903               	skipnz
  1696  0633  2E19               	goto	l173
  1697  0634  3A03               	xorlw	3	; case 2
  1698  0635  1903               	skipnz
  1699  0636  2E1F               	goto	l174
  1700  0637  2FEC               	goto	l1528
  1701  0638                     l178:	
  1702                           ;main.c: 276:   case 'O':
  1703                           
  1704                           
  1705                           ;main.c: 277:     switch (group)
  1706  0638  2E4B               	goto	l1490
  1707  0639                     l180:	
  1708                           ;main.c: 278:     {;main.c: 279:     case UPPER:
  1709                           
  1710                           
  1711                           ;main.c: 280:       RA0 = 0;
  1712  0639  0020               	movlb	0	; select bank0
  1713  063A  100C               	bcf	12,0	;volatile
  1714                           
  1715                           ;main.c: 281:       RA1 = 0;
  1716  063B  108C               	bcf	12,1	;volatile
  1717                           
  1718                           ;main.c: 282:       RA2 = 1;
  1719  063C  150C               	bsf	12,2	;volatile
  1720                           
  1721                           ;main.c: 283:       RA3 = 0;
  1722  063D  118C               	bcf	12,3	;volatile
  1723                           
  1724                           ;main.c: 284:       break;
  1725  063E  2FEC               	goto	l1528
  1726  063F                     l182:	
  1727                           ;main.c: 286:     case MIDDLE:
  1728                           
  1729                           
  1730                           ;main.c: 287:       RA5 = 0;
  1731  063F  0020               	movlb	0	; select bank0
  1732  0640  128C               	bcf	12,5	;volatile
  1733                           
  1734                           ;main.c: 288:       RE0 = 0;
  1735  0641  1010               	bcf	16,0	;volatile
  1736                           
  1737                           ;main.c: 289:       RE1 = 1;
  1738  0642  1490               	bsf	16,1	;volatile
  1739                           
  1740                           ;main.c: 290:       RE2 = 0;
  1741  0643  1110               	bcf	16,2	;volatile
  1742                           
  1743                           ;main.c: 291:       break;
  1744  0644  2FEC               	goto	l1528
  1745  0645                     l183:	
  1746                           ;main.c: 293:     case LOWER:
  1747                           
  1748                           
  1749                           ;main.c: 294:       RA6 = 0;
  1750  0645  0020               	movlb	0	; select bank0
  1751  0646  130C               	bcf	12,6	;volatile
  1752                           
  1753                           ;main.c: 295:       RC0 = 0;
  1754  0647  100E               	bcf	14,0	;volatile
  1755                           
  1756                           ;main.c: 296:       RC1 = 1;
  1757  0648  148E               	bsf	14,1	;volatile
  1758                           
  1759                           ;main.c: 297:       RC2 = 0;
  1760  0649  110E               	bcf	14,2	;volatile
  1761                           
  1762                           ;main.c: 298:       break;
  1763  064A  2FEC               	goto	l1528
  1764  064B                     l1490:
  1765  064B  0878               	movf	show_character@group,w
  1766  064C  00F5               	movwf	??_show_character
  1767  064D  01F6               	clrf	??_show_character+1
  1768                           
  1769                           ; Switch on 2 bytes has been partitioned into a top level switch of size 1, and 1 sub-sw
      +                          itches
  1770                           ; Switch size 1, requested type "simple"
  1771                           ; Number of cases is 1, Range of values is 0 to 0
  1772                           ; switch strategies available:
  1773                           ; Name         Instructions Cycles
  1774                           ; simple_byte            4     3 (average)
  1775                           ; direct_byte            8     6 (fixed)
  1776                           ; jumptable            260     6 (fixed)
  1777                           ;	Chosen strategy is simple_byte
  1778  064E  0876               	movf	??_show_character+1,w
  1779  064F  3A00               	xorlw	0	; case 0
  1780  0650  1903               	skipnz
  1781  0651  2E53               	goto	l1972
  1782  0652  2FEC               	goto	l1528
  1783  0653                     l1972:
  1784                           
  1785                           ; Switch size 1, requested type "simple"
  1786                           ; Number of cases is 3, Range of values is 0 to 2
  1787                           ; switch strategies available:
  1788                           ; Name         Instructions Cycles
  1789                           ; simple_byte           10     6 (average)
  1790                           ; direct_byte           12     6 (fixed)
  1791                           ; jumptable            260     6 (fixed)
  1792                           ;	Chosen strategy is simple_byte
  1793  0653  0875               	movf	??_show_character,w
  1794  0654  3A00               	xorlw	0	; case 0
  1795  0655  1903               	skipnz
  1796  0656  2E39               	goto	l180
  1797  0657  3A01               	xorlw	1	; case 1
  1798  0658  1903               	skipnz
  1799  0659  2E3F               	goto	l182
  1800  065A  3A03               	xorlw	3	; case 2
  1801  065B  1903               	skipnz
  1802  065C  2E45               	goto	l183
  1803  065D  2FEC               	goto	l1528
  1804  065E                     l188:	
  1805                           ;main.c: 308:     {;main.c: 309:     case UPPER:
  1806                           
  1807                           
  1808                           ;main.c: 310:       RA0 = 0;
  1809  065E  0020               	movlb	0	; select bank0
  1810  065F  100C               	bcf	12,0	;volatile
  1811                           
  1812                           ;main.c: 311:       RA1 = 0;
  1813  0660  108C               	bcf	12,1	;volatile
  1814                           
  1815                           ;main.c: 312:       RA2 = 1;
  1816  0661  150C               	bsf	12,2	;volatile
  1817                           
  1818                           ;main.c: 313:       RA3 = 1;
  1819  0662  158C               	bsf	12,3	;volatile
  1820                           
  1821                           ;main.c: 314:       break;
  1822  0663  2FEC               	goto	l1528
  1823  0664                     l190:	
  1824                           ;main.c: 316:     case MIDDLE:
  1825                           
  1826                           
  1827                           ;main.c: 317:       RA5 = 0;
  1828  0664  0020               	movlb	0	; select bank0
  1829  0665  128C               	bcf	12,5	;volatile
  1830                           
  1831                           ;main.c: 318:       RE0 = 0;
  1832  0666  1010               	bcf	16,0	;volatile
  1833                           
  1834                           ;main.c: 319:       RE1 = 1;
  1835  0667  1490               	bsf	16,1	;volatile
  1836                           
  1837                           ;main.c: 320:       RE2 = 1;
  1838  0668  1510               	bsf	16,2	;volatile
  1839                           
  1840                           ;main.c: 321:       break;
  1841  0669  2FEC               	goto	l1528
  1842  066A                     l191:	
  1843                           ;main.c: 323:     case LOWER:
  1844                           
  1845                           
  1846                           ;main.c: 324:       RA6 = 0;
  1847  066A  0020               	movlb	0	; select bank0
  1848  066B  130C               	bcf	12,6	;volatile
  1849                           
  1850                           ;main.c: 325:       RC0 = 0;
  1851  066C  100E               	bcf	14,0	;volatile
  1852                           
  1853                           ;main.c: 326:       RC1 = 1;
  1854  066D  148E               	bsf	14,1	;volatile
  1855                           
  1856                           ;main.c: 327:       RC2 = 1;
  1857  066E  150E               	bsf	14,2	;volatile
  1858                           
  1859                           ;main.c: 328:       break;
  1860  066F  2FEC               	goto	l1528
  1861  0670                     l1494:
  1862  0670  0878               	movf	show_character@group,w
  1863  0671  00F5               	movwf	??_show_character
  1864  0672  01F6               	clrf	??_show_character+1
  1865                           
  1866                           ; Switch on 2 bytes has been partitioned into a top level switch of size 1, and 1 sub-sw
      +                          itches
  1867                           ; Switch size 1, requested type "simple"
  1868                           ; Number of cases is 1, Range of values is 0 to 0
  1869                           ; switch strategies available:
  1870                           ; Name         Instructions Cycles
  1871                           ; simple_byte            4     3 (average)
  1872                           ; direct_byte            8     6 (fixed)
  1873                           ; jumptable            260     6 (fixed)
  1874                           ;	Chosen strategy is simple_byte
  1875  0673  0876               	movf	??_show_character+1,w
  1876  0674  3A00               	xorlw	0	; case 0
  1877  0675  1903               	skipnz
  1878  0676  2E78               	goto	l1974
  1879  0677  2FEC               	goto	l1528
  1880  0678                     l1974:
  1881                           
  1882                           ; Switch size 1, requested type "simple"
  1883                           ; Number of cases is 3, Range of values is 0 to 2
  1884                           ; switch strategies available:
  1885                           ; Name         Instructions Cycles
  1886                           ; simple_byte           10     6 (average)
  1887                           ; direct_byte           12     6 (fixed)
  1888                           ; jumptable            260     6 (fixed)
  1889                           ;	Chosen strategy is simple_byte
  1890  0678  0875               	movf	??_show_character,w
  1891  0679  3A00               	xorlw	0	; case 0
  1892  067A  1903               	skipnz
  1893  067B  2E5E               	goto	l188
  1894  067C  3A01               	xorlw	1	; case 1
  1895  067D  1903               	skipnz
  1896  067E  2E64               	goto	l190
  1897  067F  3A03               	xorlw	3	; case 2
  1898  0680  1903               	skipnz
  1899  0681  2E6A               	goto	l191
  1900  0682  2FEC               	goto	l1528
  1901  0683                     l195:	
  1902                           ;main.c: 337:   case 'S':
  1903                           
  1904                           
  1905                           ;main.c: 338:     switch (group)
  1906  0683  2E96               	goto	l1498
  1907  0684                     l197:	
  1908                           ;main.c: 339:     {;main.c: 340:     case UPPER:
  1909                           
  1910                           
  1911                           ;main.c: 341:       RA0 = 0;
  1912  0684  0020               	movlb	0	; select bank0
  1913  0685  100C               	bcf	12,0	;volatile
  1914                           
  1915                           ;main.c: 342:       RA1 = 1;
  1916  0686  148C               	bsf	12,1	;volatile
  1917                           
  1918                           ;main.c: 343:       RA2 = 0;
  1919  0687  110C               	bcf	12,2	;volatile
  1920                           
  1921                           ;main.c: 344:       RA3 = 0;
  1922  0688  118C               	bcf	12,3	;volatile
  1923                           
  1924                           ;main.c: 345:       break;
  1925  0689  2FEC               	goto	l1528
  1926  068A                     l199:	
  1927                           ;main.c: 347:     case MIDDLE:
  1928                           
  1929                           
  1930                           ;main.c: 348:       RA5 = 0;
  1931  068A  0020               	movlb	0	; select bank0
  1932  068B  128C               	bcf	12,5	;volatile
  1933                           
  1934                           ;main.c: 349:       RE0 = 1;
  1935  068C  1410               	bsf	16,0	;volatile
  1936                           
  1937                           ;main.c: 350:       RE1 = 0;
  1938  068D  1090               	bcf	16,1	;volatile
  1939                           
  1940                           ;main.c: 351:       RE2 = 0;
  1941  068E  1110               	bcf	16,2	;volatile
  1942                           
  1943                           ;main.c: 352:       break;
  1944  068F  2FEC               	goto	l1528
  1945  0690                     l200:	
  1946                           ;main.c: 354:     case LOWER:
  1947                           
  1948                           
  1949                           ;main.c: 355:       RA6 = 0;
  1950  0690  0020               	movlb	0	; select bank0
  1951  0691  130C               	bcf	12,6	;volatile
  1952                           
  1953                           ;main.c: 356:       RC0 = 1;
  1954  0692  140E               	bsf	14,0	;volatile
  1955                           
  1956                           ;main.c: 357:       RC1 = 0;
  1957  0693  108E               	bcf	14,1	;volatile
  1958                           
  1959                           ;main.c: 358:       RC2 = 0;
  1960  0694  110E               	bcf	14,2	;volatile
  1961                           
  1962                           ;main.c: 359:       break;
  1963  0695  2FEC               	goto	l1528
  1964  0696                     l1498:
  1965  0696  0878               	movf	show_character@group,w
  1966  0697  00F5               	movwf	??_show_character
  1967  0698  01F6               	clrf	??_show_character+1
  1968                           
  1969                           ; Switch on 2 bytes has been partitioned into a top level switch of size 1, and 1 sub-sw
      +                          itches
  1970                           ; Switch size 1, requested type "simple"
  1971                           ; Number of cases is 1, Range of values is 0 to 0
  1972                           ; switch strategies available:
  1973                           ; Name         Instructions Cycles
  1974                           ; simple_byte            4     3 (average)
  1975                           ; direct_byte            8     6 (fixed)
  1976                           ; jumptable            260     6 (fixed)
  1977                           ;	Chosen strategy is simple_byte
  1978  0699  0876               	movf	??_show_character+1,w
  1979  069A  3A00               	xorlw	0	; case 0
  1980  069B  1903               	skipnz
  1981  069C  2E9E               	goto	l1976
  1982  069D  2FEC               	goto	l1528
  1983  069E                     l1976:
  1984                           
  1985                           ; Switch size 1, requested type "simple"
  1986                           ; Number of cases is 3, Range of values is 0 to 2
  1987                           ; switch strategies available:
  1988                           ; Name         Instructions Cycles
  1989                           ; simple_byte           10     6 (average)
  1990                           ; direct_byte           12     6 (fixed)
  1991                           ; jumptable            260     6 (fixed)
  1992                           ;	Chosen strategy is simple_byte
  1993  069E  0875               	movf	??_show_character,w
  1994  069F  3A00               	xorlw	0	; case 0
  1995  06A0  1903               	skipnz
  1996  06A1  2E84               	goto	l197
  1997  06A2  3A01               	xorlw	1	; case 1
  1998  06A3  1903               	skipnz
  1999  06A4  2E8A               	goto	l199
  2000  06A5  3A03               	xorlw	3	; case 2
  2001  06A6  1903               	skipnz
  2002  06A7  2E90               	goto	l200
  2003  06A8  2FEC               	goto	l1528
  2004  06A9                     l204:	
  2005                           ;main.c: 368:   case 'V':
  2006                           
  2007                           
  2008                           ;main.c: 369:     switch (group)
  2009  06A9  2EBC               	goto	l1502
  2010  06AA                     l206:	
  2011                           ;main.c: 370:     {;main.c: 371:     case UPPER:
  2012                           
  2013                           
  2014                           ;main.c: 372:       RA0 = 0;
  2015  06AA  0020               	movlb	0	; select bank0
  2016  06AB  100C               	bcf	12,0	;volatile
  2017                           
  2018                           ;main.c: 373:       RA1 = 1;
  2019  06AC  148C               	bsf	12,1	;volatile
  2020                           
  2021                           ;main.c: 374:       RA2 = 0;
  2022  06AD  110C               	bcf	12,2	;volatile
  2023                           
  2024                           ;main.c: 375:       RA3 = 1;
  2025  06AE  158C               	bsf	12,3	;volatile
  2026                           
  2027                           ;main.c: 376:       break;
  2028  06AF  2FEC               	goto	l1528
  2029  06B0                     l208:	
  2030                           ;main.c: 378:     case MIDDLE:
  2031                           
  2032                           
  2033                           ;main.c: 379:       RA5 = 0;
  2034  06B0  0020               	movlb	0	; select bank0
  2035  06B1  128C               	bcf	12,5	;volatile
  2036                           
  2037                           ;main.c: 380:       RE0 = 1;
  2038  06B2  1410               	bsf	16,0	;volatile
  2039                           
  2040                           ;main.c: 381:       RE1 = 0;
  2041  06B3  1090               	bcf	16,1	;volatile
  2042                           
  2043                           ;main.c: 382:       RE2 = 1;
  2044  06B4  1510               	bsf	16,2	;volatile
  2045                           
  2046                           ;main.c: 383:       break;
  2047  06B5  2FEC               	goto	l1528
  2048  06B6                     l209:	
  2049                           ;main.c: 385:     case LOWER:
  2050                           
  2051                           
  2052                           ;main.c: 386:       RA6 = 0;
  2053  06B6  0020               	movlb	0	; select bank0
  2054  06B7  130C               	bcf	12,6	;volatile
  2055                           
  2056                           ;main.c: 387:       RC0 = 1;
  2057  06B8  140E               	bsf	14,0	;volatile
  2058                           
  2059                           ;main.c: 388:       RC1 = 0;
  2060  06B9  108E               	bcf	14,1	;volatile
  2061                           
  2062                           ;main.c: 389:       RC2 = 1;
  2063  06BA  150E               	bsf	14,2	;volatile
  2064                           
  2065                           ;main.c: 390:       break;
  2066  06BB  2FEC               	goto	l1528
  2067  06BC                     l1502:
  2068  06BC  0878               	movf	show_character@group,w
  2069  06BD  00F5               	movwf	??_show_character
  2070  06BE  01F6               	clrf	??_show_character+1
  2071                           
  2072                           ; Switch on 2 bytes has been partitioned into a top level switch of size 1, and 1 sub-sw
      +                          itches
  2073                           ; Switch size 1, requested type "simple"
  2074                           ; Number of cases is 1, Range of values is 0 to 0
  2075                           ; switch strategies available:
  2076                           ; Name         Instructions Cycles
  2077                           ; simple_byte            4     3 (average)
  2078                           ; direct_byte            8     6 (fixed)
  2079                           ; jumptable            260     6 (fixed)
  2080                           ;	Chosen strategy is simple_byte
  2081  06BF  0876               	movf	??_show_character+1,w
  2082  06C0  3A00               	xorlw	0	; case 0
  2083  06C1  1903               	skipnz
  2084  06C2  2EC4               	goto	l1978
  2085  06C3  2FEC               	goto	l1528
  2086  06C4                     l1978:
  2087                           
  2088                           ; Switch size 1, requested type "simple"
  2089                           ; Number of cases is 3, Range of values is 0 to 2
  2090                           ; switch strategies available:
  2091                           ; Name         Instructions Cycles
  2092                           ; simple_byte           10     6 (average)
  2093                           ; direct_byte           12     6 (fixed)
  2094                           ; jumptable            260     6 (fixed)
  2095                           ;	Chosen strategy is simple_byte
  2096  06C4  0875               	movf	??_show_character,w
  2097  06C5  3A00               	xorlw	0	; case 0
  2098  06C6  1903               	skipnz
  2099  06C7  2EAA               	goto	l206
  2100  06C8  3A01               	xorlw	1	; case 1
  2101  06C9  1903               	skipnz
  2102  06CA  2EB0               	goto	l208
  2103  06CB  3A03               	xorlw	3	; case 2
  2104  06CC  1903               	skipnz
  2105  06CD  2EB6               	goto	l209
  2106  06CE  2FEC               	goto	l1528
  2107  06CF                     l213:	
  2108                           ;main.c: 399:   case 'H':
  2109                           
  2110                           
  2111                           ;main.c: 400:     switch (group)
  2112  06CF  2EE2               	goto	l1506
  2113  06D0                     l215:	
  2114                           ;main.c: 401:     {;main.c: 402:     case UPPER:
  2115                           
  2116                           
  2117                           ;main.c: 403:       RA0 = 0;
  2118  06D0  0020               	movlb	0	; select bank0
  2119  06D1  100C               	bcf	12,0	;volatile
  2120                           
  2121                           ;main.c: 404:       RA1 = 1;
  2122  06D2  148C               	bsf	12,1	;volatile
  2123                           
  2124                           ;main.c: 405:       RA2 = 1;
  2125  06D3  150C               	bsf	12,2	;volatile
  2126                           
  2127                           ;main.c: 406:       RA3 = 0;
  2128  06D4  118C               	bcf	12,3	;volatile
  2129                           
  2130                           ;main.c: 407:       break;
  2131  06D5  2FEC               	goto	l1528
  2132  06D6                     l217:	
  2133                           ;main.c: 409:     case MIDDLE:
  2134                           
  2135                           
  2136                           ;main.c: 410:       RA5 = 0;
  2137  06D6  0020               	movlb	0	; select bank0
  2138  06D7  128C               	bcf	12,5	;volatile
  2139                           
  2140                           ;main.c: 411:       RE0 = 1;
  2141  06D8  1410               	bsf	16,0	;volatile
  2142                           
  2143                           ;main.c: 412:       RE1 = 1;
  2144  06D9  1490               	bsf	16,1	;volatile
  2145                           
  2146                           ;main.c: 413:       RE2 = 0;
  2147  06DA  1110               	bcf	16,2	;volatile
  2148                           
  2149                           ;main.c: 414:       break;
  2150  06DB  2FEC               	goto	l1528
  2151  06DC                     l218:	
  2152                           ;main.c: 416:     case LOWER:
  2153                           
  2154                           
  2155                           ;main.c: 417:       RA6 = 0;
  2156  06DC  0020               	movlb	0	; select bank0
  2157  06DD  130C               	bcf	12,6	;volatile
  2158                           
  2159                           ;main.c: 418:       RC0 = 1;
  2160  06DE  140E               	bsf	14,0	;volatile
  2161                           
  2162                           ;main.c: 419:       RC1 = 1;
  2163  06DF  148E               	bsf	14,1	;volatile
  2164                           
  2165                           ;main.c: 420:       RC2 = 0;
  2166  06E0  110E               	bcf	14,2	;volatile
  2167                           
  2168                           ;main.c: 421:       break;
  2169  06E1  2FEC               	goto	l1528
  2170  06E2                     l1506:
  2171  06E2  0878               	movf	show_character@group,w
  2172  06E3  00F5               	movwf	??_show_character
  2173  06E4  01F6               	clrf	??_show_character+1
  2174                           
  2175                           ; Switch on 2 bytes has been partitioned into a top level switch of size 1, and 1 sub-sw
      +                          itches
  2176                           ; Switch size 1, requested type "simple"
  2177                           ; Number of cases is 1, Range of values is 0 to 0
  2178                           ; switch strategies available:
  2179                           ; Name         Instructions Cycles
  2180                           ; simple_byte            4     3 (average)
  2181                           ; direct_byte            8     6 (fixed)
  2182                           ; jumptable            260     6 (fixed)
  2183                           ;	Chosen strategy is simple_byte
  2184  06E5  0876               	movf	??_show_character+1,w
  2185  06E6  3A00               	xorlw	0	; case 0
  2186  06E7  1903               	skipnz
  2187  06E8  2EEA               	goto	l1980
  2188  06E9  2FEC               	goto	l1528
  2189  06EA                     l1980:
  2190                           
  2191                           ; Switch size 1, requested type "simple"
  2192                           ; Number of cases is 3, Range of values is 0 to 2
  2193                           ; switch strategies available:
  2194                           ; Name         Instructions Cycles
  2195                           ; simple_byte           10     6 (average)
  2196                           ; direct_byte           12     6 (fixed)
  2197                           ; jumptable            260     6 (fixed)
  2198                           ;	Chosen strategy is simple_byte
  2199  06EA  0875               	movf	??_show_character,w
  2200  06EB  3A00               	xorlw	0	; case 0
  2201  06EC  1903               	skipnz
  2202  06ED  2ED0               	goto	l215
  2203  06EE  3A01               	xorlw	1	; case 1
  2204  06EF  1903               	skipnz
  2205  06F0  2ED6               	goto	l217
  2206  06F1  3A03               	xorlw	3	; case 2
  2207  06F2  1903               	skipnz
  2208  06F3  2EDC               	goto	l218
  2209  06F4  2FEC               	goto	l1528
  2210  06F5                     l222:	
  2211                           ;main.c: 430:   case 'h':
  2212                           
  2213                           
  2214                           ;main.c: 431:     switch (group)
  2215  06F5  2F08               	goto	l1510
  2216  06F6                     l224:	
  2217                           ;main.c: 432:     {;main.c: 433:     case UPPER:
  2218                           
  2219                           
  2220                           ;main.c: 434:       RA0 = 0;
  2221  06F6  0020               	movlb	0	; select bank0
  2222  06F7  100C               	bcf	12,0	;volatile
  2223                           
  2224                           ;main.c: 435:       RA1 = 1;
  2225  06F8  148C               	bsf	12,1	;volatile
  2226                           
  2227                           ;main.c: 436:       RA2 = 1;
  2228  06F9  150C               	bsf	12,2	;volatile
  2229                           
  2230                           ;main.c: 437:       RA3 = 1;
  2231  06FA  158C               	bsf	12,3	;volatile
  2232                           
  2233                           ;main.c: 438:       break;
  2234  06FB  2FEC               	goto	l1528
  2235  06FC                     l226:	
  2236                           ;main.c: 440:     case MIDDLE:
  2237                           
  2238                           
  2239                           ;main.c: 441:       RA5 = 0;
  2240  06FC  0020               	movlb	0	; select bank0
  2241  06FD  128C               	bcf	12,5	;volatile
  2242                           
  2243                           ;main.c: 442:       RE0 = 1;
  2244  06FE  1410               	bsf	16,0	;volatile
  2245                           
  2246                           ;main.c: 443:       RE1 = 1;
  2247  06FF  1490               	bsf	16,1	;volatile
  2248                           
  2249                           ;main.c: 444:       RE2 = 1;
  2250  0700  1510               	bsf	16,2	;volatile
  2251                           
  2252                           ;main.c: 445:       break;
  2253  0701  2FEC               	goto	l1528
  2254  0702                     l227:	
  2255                           ;main.c: 447:     case LOWER:
  2256                           
  2257                           
  2258                           ;main.c: 448:       RA6 = 0;
  2259  0702  0020               	movlb	0	; select bank0
  2260  0703  130C               	bcf	12,6	;volatile
  2261                           
  2262                           ;main.c: 449:       RC0 = 1;
  2263  0704  140E               	bsf	14,0	;volatile
  2264                           
  2265                           ;main.c: 450:       RC1 = 1;
  2266  0705  148E               	bsf	14,1	;volatile
  2267                           
  2268                           ;main.c: 451:       RC2 = 1;
  2269  0706  150E               	bsf	14,2	;volatile
  2270                           
  2271                           ;main.c: 452:       break;
  2272  0707  2FEC               	goto	l1528
  2273  0708                     l1510:
  2274  0708  0878               	movf	show_character@group,w
  2275  0709  00F5               	movwf	??_show_character
  2276  070A  01F6               	clrf	??_show_character+1
  2277                           
  2278                           ; Switch on 2 bytes has been partitioned into a top level switch of size 1, and 1 sub-sw
      +                          itches
  2279                           ; Switch size 1, requested type "simple"
  2280                           ; Number of cases is 1, Range of values is 0 to 0
  2281                           ; switch strategies available:
  2282                           ; Name         Instructions Cycles
  2283                           ; simple_byte            4     3 (average)
  2284                           ; direct_byte            8     6 (fixed)
  2285                           ; jumptable            260     6 (fixed)
  2286                           ;	Chosen strategy is simple_byte
  2287  070B  0876               	movf	??_show_character+1,w
  2288  070C  3A00               	xorlw	0	; case 0
  2289  070D  1903               	skipnz
  2290  070E  2F10               	goto	l1982
  2291  070F  2FEC               	goto	l1528
  2292  0710                     l1982:
  2293                           
  2294                           ; Switch size 1, requested type "simple"
  2295                           ; Number of cases is 3, Range of values is 0 to 2
  2296                           ; switch strategies available:
  2297                           ; Name         Instructions Cycles
  2298                           ; simple_byte           10     6 (average)
  2299                           ; direct_byte           12     6 (fixed)
  2300                           ; jumptable            260     6 (fixed)
  2301                           ;	Chosen strategy is simple_byte
  2302  0710  0875               	movf	??_show_character,w
  2303  0711  3A00               	xorlw	0	; case 0
  2304  0712  1903               	skipnz
  2305  0713  2EF6               	goto	l224
  2306  0714  3A01               	xorlw	1	; case 1
  2307  0715  1903               	skipnz
  2308  0716  2EFC               	goto	l226
  2309  0717  3A03               	xorlw	3	; case 2
  2310  0718  1903               	skipnz
  2311  0719  2F02               	goto	l227
  2312  071A  2FEC               	goto	l1528
  2313  071B                     l232:	
  2314                           ;main.c: 462:     {;main.c: 463:     case UPPER:
  2315                           
  2316                           
  2317                           ;main.c: 464:       RA0 = 1;
  2318  071B  0020               	movlb	0	; select bank0
  2319  071C  140C               	bsf	12,0	;volatile
  2320                           
  2321                           ;main.c: 465:       RA1 = 0;
  2322  071D  108C               	bcf	12,1	;volatile
  2323                           
  2324                           ;main.c: 466:       RA2 = 0;
  2325  071E  110C               	bcf	12,2	;volatile
  2326                           
  2327                           ;main.c: 467:       RA3 = 0;
  2328  071F  118C               	bcf	12,3	;volatile
  2329                           
  2330                           ;main.c: 468:       break;
  2331  0720  2FEC               	goto	l1528
  2332  0721                     l234:	
  2333                           ;main.c: 470:     case MIDDLE:
  2334                           
  2335                           
  2336                           ;main.c: 471:       RA5 = 1;
  2337  0721  0020               	movlb	0	; select bank0
  2338  0722  168C               	bsf	12,5	;volatile
  2339                           
  2340                           ;main.c: 472:       RE0 = 0;
  2341  0723  1010               	bcf	16,0	;volatile
  2342                           
  2343                           ;main.c: 473:       RE1 = 0;
  2344  0724  1090               	bcf	16,1	;volatile
  2345                           
  2346                           ;main.c: 474:       RE2 = 0;
  2347  0725  1110               	bcf	16,2	;volatile
  2348                           
  2349                           ;main.c: 475:       break;
  2350  0726  2FEC               	goto	l1528
  2351  0727                     l235:	
  2352                           ;main.c: 477:     case LOWER:
  2353                           
  2354                           
  2355                           ;main.c: 478:       RA6 = 1;
  2356  0727  0020               	movlb	0	; select bank0
  2357  0728  170C               	bsf	12,6	;volatile
  2358                           
  2359                           ;main.c: 479:       RC0 = 0;
  2360  0729  100E               	bcf	14,0	;volatile
  2361                           
  2362                           ;main.c: 480:       RC1 = 0;
  2363  072A  108E               	bcf	14,1	;volatile
  2364                           
  2365                           ;main.c: 481:       RC2 = 0;
  2366  072B  110E               	bcf	14,2	;volatile
  2367                           
  2368                           ;main.c: 482:       break;
  2369  072C  2FEC               	goto	l1528
  2370  072D                     l1514:
  2371  072D  0878               	movf	show_character@group,w
  2372  072E  00F5               	movwf	??_show_character
  2373  072F  01F6               	clrf	??_show_character+1
  2374                           
  2375                           ; Switch on 2 bytes has been partitioned into a top level switch of size 1, and 1 sub-sw
      +                          itches
  2376                           ; Switch size 1, requested type "simple"
  2377                           ; Number of cases is 1, Range of values is 0 to 0
  2378                           ; switch strategies available:
  2379                           ; Name         Instructions Cycles
  2380                           ; simple_byte            4     3 (average)
  2381                           ; direct_byte            8     6 (fixed)
  2382                           ; jumptable            260     6 (fixed)
  2383                           ;	Chosen strategy is simple_byte
  2384  0730  0876               	movf	??_show_character+1,w
  2385  0731  3A00               	xorlw	0	; case 0
  2386  0732  1903               	skipnz
  2387  0733  2F35               	goto	l1984
  2388  0734  2FEC               	goto	l1528
  2389  0735                     l1984:
  2390                           
  2391                           ; Switch size 1, requested type "simple"
  2392                           ; Number of cases is 3, Range of values is 0 to 2
  2393                           ; switch strategies available:
  2394                           ; Name         Instructions Cycles
  2395                           ; simple_byte           10     6 (average)
  2396                           ; direct_byte           12     6 (fixed)
  2397                           ; jumptable            260     6 (fixed)
  2398                           ;	Chosen strategy is simple_byte
  2399  0735  0875               	movf	??_show_character,w
  2400  0736  3A00               	xorlw	0	; case 0
  2401  0737  1903               	skipnz
  2402  0738  2F1B               	goto	l232
  2403  0739  3A01               	xorlw	1	; case 1
  2404  073A  1903               	skipnz
  2405  073B  2F21               	goto	l234
  2406  073C  3A03               	xorlw	3	; case 2
  2407  073D  1903               	skipnz
  2408  073E  2F27               	goto	l235
  2409  073F  2FEC               	goto	l1528
  2410  0740                     l239:	
  2411                           ;main.c: 491:   case 'F':
  2412                           
  2413                           
  2414                           ;main.c: 492:     switch (group)
  2415  0740  2F53               	goto	l1518
  2416  0741                     l241:	
  2417                           ;main.c: 493:     {;main.c: 494:     case UPPER:
  2418                           
  2419                           
  2420                           ;main.c: 495:       RA0 = 1;
  2421  0741  0020               	movlb	0	; select bank0
  2422  0742  140C               	bsf	12,0	;volatile
  2423                           
  2424                           ;main.c: 496:       RA1 = 0;
  2425  0743  108C               	bcf	12,1	;volatile
  2426                           
  2427                           ;main.c: 497:       RA2 = 0;
  2428  0744  110C               	bcf	12,2	;volatile
  2429                           
  2430                           ;main.c: 498:       RA3 = 1;
  2431  0745  158C               	bsf	12,3	;volatile
  2432                           
  2433                           ;main.c: 499:       break;
  2434  0746  2FEC               	goto	l1528
  2435  0747                     l243:	
  2436                           ;main.c: 501:     case MIDDLE:
  2437                           
  2438                           
  2439                           ;main.c: 502:       RA5 = 1;
  2440  0747  0020               	movlb	0	; select bank0
  2441  0748  168C               	bsf	12,5	;volatile
  2442                           
  2443                           ;main.c: 503:       RE0 = 0;
  2444  0749  1010               	bcf	16,0	;volatile
  2445                           
  2446                           ;main.c: 504:       RE1 = 0;
  2447  074A  1090               	bcf	16,1	;volatile
  2448                           
  2449                           ;main.c: 505:       RE2 = 1;
  2450  074B  1510               	bsf	16,2	;volatile
  2451                           
  2452                           ;main.c: 506:       break;
  2453  074C  2FEC               	goto	l1528
  2454  074D                     l244:	
  2455                           ;main.c: 508:     case LOWER:
  2456                           
  2457                           
  2458                           ;main.c: 509:       RA6 = 1;
  2459  074D  0020               	movlb	0	; select bank0
  2460  074E  170C               	bsf	12,6	;volatile
  2461                           
  2462                           ;main.c: 510:       RC0 = 0;
  2463  074F  100E               	bcf	14,0	;volatile
  2464                           
  2465                           ;main.c: 511:       RC1 = 0;
  2466  0750  108E               	bcf	14,1	;volatile
  2467                           
  2468                           ;main.c: 512:       RC2 = 1;
  2469  0751  150E               	bsf	14,2	;volatile
  2470                           
  2471                           ;main.c: 513:       break;
  2472  0752  2FEC               	goto	l1528
  2473  0753                     l1518:
  2474  0753  0878               	movf	show_character@group,w
  2475  0754  00F5               	movwf	??_show_character
  2476  0755  01F6               	clrf	??_show_character+1
  2477                           
  2478                           ; Switch on 2 bytes has been partitioned into a top level switch of size 1, and 1 sub-sw
      +                          itches
  2479                           ; Switch size 1, requested type "simple"
  2480                           ; Number of cases is 1, Range of values is 0 to 0
  2481                           ; switch strategies available:
  2482                           ; Name         Instructions Cycles
  2483                           ; simple_byte            4     3 (average)
  2484                           ; direct_byte            8     6 (fixed)
  2485                           ; jumptable            260     6 (fixed)
  2486                           ;	Chosen strategy is simple_byte
  2487  0756  0876               	movf	??_show_character+1,w
  2488  0757  3A00               	xorlw	0	; case 0
  2489  0758  1903               	skipnz
  2490  0759  2F5B               	goto	l1986
  2491  075A  2FEC               	goto	l1528
  2492  075B                     l1986:
  2493                           
  2494                           ; Switch size 1, requested type "simple"
  2495                           ; Number of cases is 3, Range of values is 0 to 2
  2496                           ; switch strategies available:
  2497                           ; Name         Instructions Cycles
  2498                           ; simple_byte           10     6 (average)
  2499                           ; direct_byte           12     6 (fixed)
  2500                           ; jumptable            260     6 (fixed)
  2501                           ;	Chosen strategy is simple_byte
  2502  075B  0875               	movf	??_show_character,w
  2503  075C  3A00               	xorlw	0	; case 0
  2504  075D  1903               	skipnz
  2505  075E  2F41               	goto	l241
  2506  075F  3A01               	xorlw	1	; case 1
  2507  0760  1903               	skipnz
  2508  0761  2F47               	goto	l243
  2509  0762  3A03               	xorlw	3	; case 2
  2510  0763  1903               	skipnz
  2511  0764  2F4D               	goto	l244
  2512  0765  2FEC               	goto	l1528
  2513  0766                     l249:	
  2514                           ;main.c: 523:     {;main.c: 524:     case UPPER:
  2515                           
  2516                           
  2517                           ;main.c: 525:       RA0 = 1;
  2518  0766  0020               	movlb	0	; select bank0
  2519  0767  140C               	bsf	12,0	;volatile
  2520                           
  2521                           ;main.c: 526:       RA1 = 1;
  2522  0768  148C               	bsf	12,1	;volatile
  2523                           
  2524                           ;main.c: 527:       RA2 = 1;
  2525  0769  150C               	bsf	12,2	;volatile
  2526                           
  2527                           ;main.c: 528:       RA3 = 1;
  2528  076A  158C               	bsf	12,3	;volatile
  2529                           
  2530                           ;main.c: 529:       break;
  2531  076B  2FEC               	goto	l1528
  2532  076C                     l251:	
  2533                           ;main.c: 531:     case MIDDLE:
  2534                           
  2535                           
  2536                           ;main.c: 532:       RA5 = 1;
  2537  076C  0020               	movlb	0	; select bank0
  2538  076D  168C               	bsf	12,5	;volatile
  2539                           
  2540                           ;main.c: 533:       RE0 = 1;
  2541  076E  1410               	bsf	16,0	;volatile
  2542                           
  2543                           ;main.c: 534:       RE1 = 1;
  2544  076F  1490               	bsf	16,1	;volatile
  2545                           
  2546                           ;main.c: 535:       RE2 = 1;
  2547  0770  1510               	bsf	16,2	;volatile
  2548                           
  2549                           ;main.c: 536:       break;
  2550  0771  2FEC               	goto	l1528
  2551  0772                     l252:	
  2552                           ;main.c: 538:     case LOWER:
  2553                           
  2554                           
  2555                           ;main.c: 539:       RA6 = 1;
  2556  0772  0020               	movlb	0	; select bank0
  2557  0773  170C               	bsf	12,6	;volatile
  2558                           
  2559                           ;main.c: 540:       RC0 = 1;
  2560  0774  140E               	bsf	14,0	;volatile
  2561                           
  2562                           ;main.c: 541:       RC1 = 1;
  2563  0775  148E               	bsf	14,1	;volatile
  2564                           
  2565                           ;main.c: 542:       RC2 = 1;
  2566  0776  150E               	bsf	14,2	;volatile
  2567                           
  2568                           ;main.c: 543:       break;
  2569  0777  2FEC               	goto	l1528
  2570  0778                     l1522:
  2571  0778  0878               	movf	show_character@group,w
  2572  0779  00F5               	movwf	??_show_character
  2573  077A  01F6               	clrf	??_show_character+1
  2574                           
  2575                           ; Switch on 2 bytes has been partitioned into a top level switch of size 1, and 1 sub-sw
      +                          itches
  2576                           ; Switch size 1, requested type "simple"
  2577                           ; Number of cases is 1, Range of values is 0 to 0
  2578                           ; switch strategies available:
  2579                           ; Name         Instructions Cycles
  2580                           ; simple_byte            4     3 (average)
  2581                           ; direct_byte            8     6 (fixed)
  2582                           ; jumptable            260     6 (fixed)
  2583                           ;	Chosen strategy is simple_byte
  2584  077B  0876               	movf	??_show_character+1,w
  2585  077C  3A00               	xorlw	0	; case 0
  2586  077D  1903               	skipnz
  2587  077E  2F80               	goto	l1988
  2588  077F  2FEC               	goto	l1528
  2589  0780                     l1988:
  2590                           
  2591                           ; Switch size 1, requested type "simple"
  2592                           ; Number of cases is 3, Range of values is 0 to 2
  2593                           ; switch strategies available:
  2594                           ; Name         Instructions Cycles
  2595                           ; simple_byte           10     6 (average)
  2596                           ; direct_byte           12     6 (fixed)
  2597                           ; jumptable            260     6 (fixed)
  2598                           ;	Chosen strategy is simple_byte
  2599  0780  0875               	movf	??_show_character,w
  2600  0781  3A00               	xorlw	0	; case 0
  2601  0782  1903               	skipnz
  2602  0783  2F66               	goto	l249
  2603  0784  3A01               	xorlw	1	; case 1
  2604  0785  1903               	skipnz
  2605  0786  2F6C               	goto	l251
  2606  0787  3A03               	xorlw	3	; case 2
  2607  0788  1903               	skipnz
  2608  0789  2F72               	goto	l252
  2609  078A  2FEC               	goto	l1528
  2610  078B                     l1526:
  2611  078B  0873               	movf	show_character@character,w
  2612  078C  00F5               	movwf	??_show_character
  2613  078D  01F6               	clrf	??_show_character+1
  2614                           
  2615                           ; Switch on 2 bytes has been partitioned into a top level switch of size 1, and 1 sub-sw
      +                          itches
  2616                           ; Switch size 1, requested type "simple"
  2617                           ; Number of cases is 1, Range of values is 0 to 0
  2618                           ; switch strategies available:
  2619                           ; Name         Instructions Cycles
  2620                           ; simple_byte            4     3 (average)
  2621                           ; direct_byte            8     6 (fixed)
  2622                           ; jumptable            260     6 (fixed)
  2623                           ;	Chosen strategy is simple_byte
  2624  078E  0876               	movf	??_show_character+1,w
  2625  078F  3A00               	xorlw	0	; case 0
  2626  0790  1903               	skipnz
  2627  0791  2F93               	goto	l1990
  2628  0792  2F78               	goto	l1522
  2629  0793                     l1990:
  2630                           
  2631                           ; Switch size 1, requested type "simple"
  2632                           ; Number of cases is 29, Range of values is 32 to 117
  2633                           ; switch strategies available:
  2634                           ; Name         Instructions Cycles
  2635                           ; simple_byte           88    45 (average)
  2636                           ; direct_byte          181     9 (fixed)
  2637                           ; jumptable            263     9 (fixed)
  2638                           ;	Chosen strategy is simple_byte
  2639  0793  0875               	movf	??_show_character,w
  2640  0794  3A20               	xorlw	32	; case 32
  2641  0795  1903               	skipnz
  2642  0796  2F78               	goto	l1522
  2643  0797  3A05               	xorlw	5	; case 37
  2644  0798  1903               	skipnz
  2645  0799  2E4B               	goto	l1490
  2646  079A  3A0E               	xorlw	14	; case 43
  2647  079B  1903               	skipnz
  2648  079C  2F08               	goto	l1510
  2649  079D  3A06               	xorlw	6	; case 45
  2650  079E  1903               	skipnz
  2651  079F  2F2D               	goto	l1514
  2652  07A0  3A1D               	xorlw	29	; case 48
  2653  07A1  1903               	skipnz
  2654  07A2  2DEC               	goto	l159
  2655  07A3  3A01               	xorlw	1	; case 49
  2656  07A4  1903               	skipnz
  2657  07A5  2E12               	goto	l169
  2658  07A6  3A03               	xorlw	3	; case 50
  2659  07A7  1903               	skipnz
  2660  07A8  2E38               	goto	l178
  2661  07A9  3A01               	xorlw	1	; case 51
  2662  07AA  1903               	skipnz
  2663  07AB  2E70               	goto	l1494
  2664  07AC  3A07               	xorlw	7	; case 52
  2665  07AD  1903               	skipnz
  2666  07AE  2E83               	goto	l195
  2667  07AF  3A01               	xorlw	1	; case 53
  2668  07B0  1903               	skipnz
  2669  07B1  2EA9               	goto	l204
  2670  07B2  3A03               	xorlw	3	; case 54
  2671  07B3  1903               	skipnz
  2672  07B4  2ECF               	goto	l213
  2673  07B5  3A01               	xorlw	1	; case 55
  2674  07B6  1903               	skipnz
  2675  07B7  2EF5               	goto	l222
  2676  07B8  3A0F               	xorlw	15	; case 56
  2677  07B9  1903               	skipnz
  2678  07BA  2F2D               	goto	l1514
  2679  07BB  3A01               	xorlw	1	; case 57
  2680  07BC  1903               	skipnz
  2681  07BD  2F40               	goto	l239
  2682  07BE  3A78               	xorlw	120	; case 65
  2683  07BF  1903               	skipnz
  2684  07C0  2E25               	goto	l1486
  2685  07C1  3A07               	xorlw	7	; case 70
  2686  07C2  1903               	skipnz
  2687  07C3  2F53               	goto	l1518
  2688  07C4  3A0E               	xorlw	14	; case 72
  2689  07C5  1903               	skipnz
  2690  07C6  2EE2               	goto	l1506
  2691  07C7  3A05               	xorlw	5	; case 77
  2692  07C8  1903               	skipnz
  2693  07C9  2EBC               	goto	l1502
  2694  07CA  3A02               	xorlw	2	; case 79
  2695  07CB  1903               	skipnz
  2696  07CC  2E4B               	goto	l1490
  2697  07CD  3A1F               	xorlw	31	; case 80
  2698  07CE  1903               	skipnz
  2699  07CF  2F53               	goto	l1518
  2700  07D0  3A03               	xorlw	3	; case 83
  2701  07D1  1903               	skipnz
  2702  07D2  2E96               	goto	l1498
  2703  07D3  3A05               	xorlw	5	; case 86
  2704  07D4  1903               	skipnz
  2705  07D5  2EBC               	goto	l1502
  2706  07D6  3A01               	xorlw	1	; case 87
  2707  07D7  1903               	skipnz
  2708  07D8  2DFF               	goto	l1482
  2709  07D9  3A3F               	xorlw	63	; case 104
  2710  07DA  1903               	skipnz
  2711  07DB  2F08               	goto	l1510
  2712  07DC  3A03               	xorlw	3	; case 107
  2713  07DD  1903               	skipnz
  2714  07DE  2E96               	goto	l1498
  2715  07DF  3A06               	xorlw	6	; case 109
  2716  07E0  1903               	skipnz
  2717  07E1  2EE2               	goto	l1506
  2718  07E2  3A03               	xorlw	3	; case 110
  2719  07E3  1903               	skipnz
  2720  07E4  2E25               	goto	l1486
  2721  07E5  3A1E               	xorlw	30	; case 112
  2722  07E6  1903               	skipnz
  2723  07E7  2E70               	goto	l1494
  2724  07E8  3A05               	xorlw	5	; case 117
  2725  07E9  1903               	skipnz
  2726  07EA  2DFF               	goto	l1482
  2727  07EB  2F78               	goto	l1522
  2728  07EC                     l1528:
  2729                           
  2730                           ;main.c: 552:   on_digit(digit);
  2731  07EC  0874               	movf	show_character@digit,w
  2732  07ED  3184  2472  3185   	fcall	_on_digit
  2733  07F0                     l254:
  2734  07F0  0008               	return
  2735  07F1                     __end_of_show_character:
  2736                           
  2737                           	psect	text2
  2738  0472                     __ptext2:	
  2739 ;; *************** function _on_digit *****************
  2740 ;; Defined at:
  2741 ;;		line 555 in file "main.c"
  2742 ;; Parameters:    Size  Location     Type
  2743 ;;  digit           1    wreg     char 
  2744 ;; Auto vars:     Size  Location     Type
  2745 ;;  digit           1    2[COMMON] char 
  2746 ;; Return value:  Size  Location     Type
  2747 ;;                  1    wreg      void 
  2748 ;; Registers used:
  2749 ;;		wreg, fsr0l, fsr0h, status,2, status,0
  2750 ;; Tracked objects:
  2751 ;;		On entry : 0/0
  2752 ;;		On exit  : 0/0
  2753 ;;		Unchanged: 0/0
  2754 ;; Data sizes:     COMMON   BANK0   BANK1   BANK2   BANK3   BANK4   BANK5   BANK6   BANK7   BANK8   BANK9  BANK10  BANK1
      +1  BANK12
  2755 ;;      Params:         0       0       0       0       0       0       0       0       0       0       0       0       
      +0       0
  2756 ;;      Locals:         1       0       0       0       0       0       0       0       0       0       0       0       
      +0       0
  2757 ;;      Temps:          2       0       0       0       0       0       0       0       0       0       0       0       
      +0       0
  2758 ;;      Totals:         3       0       0       0       0       0       0       0       0       0       0       0       
      +0       0
  2759 ;;Total ram usage:        3 bytes
  2760 ;; Hardware stack levels used:    1
  2761 ;; This function calls:
  2762 ;;		Nothing
  2763 ;; This function is called by:
  2764 ;;		_show_character
  2765 ;; This function uses a non-reentrant model
  2766 ;;
  2767                           
  2768                           
  2769                           ;psect for function _on_digit
  2770  0472                     _on_digit:
  2771                           
  2772                           ;incstack = 0
  2773                           ; Regs used in _on_digit: [wreg-fsr0h+status,2+status,0]
  2774                           ;on_digit@digit stored from wreg
  2775  0472  00F2               	movwf	on_digit@digit
  2776  0473                     l930:
  2777                           
  2778                           ;main.c: 555: void on_digit(signed char digit);main.c: 556: {;main.c: 557:   switch (dig
      +                          it)
  2779  0473  2C92               	goto	l934
  2780  0474                     l258:	
  2781                           ;main.c: 558:   {;main.c: 559:   case 0:
  2782                           
  2783                           
  2784                           ;main.c: 560:     RB7 = 1;
  2785  0474  0020               	movlb	0	; select bank0
  2786  0475  178D               	bsf	13,7	;volatile
  2787                           
  2788                           ;main.c: 561:     break;
  2789  0476  2CBC               	goto	l270
  2790  0477                     l260:	
  2791                           ;main.c: 562:   case 1:
  2792                           
  2793                           
  2794                           ;main.c: 563:     RB6 = 1;
  2795  0477  0020               	movlb	0	; select bank0
  2796  0478  170D               	bsf	13,6	;volatile
  2797                           
  2798                           ;main.c: 564:     break;
  2799  0479  2CBC               	goto	l270
  2800  047A                     l261:	
  2801                           ;main.c: 565:   case 2:
  2802                           
  2803                           
  2804                           ;main.c: 566:     RB5 = 1;
  2805  047A  0020               	movlb	0	; select bank0
  2806  047B  168D               	bsf	13,5	;volatile
  2807                           
  2808                           ;main.c: 567:     break;
  2809  047C  2CBC               	goto	l270
  2810  047D                     l262:	
  2811                           ;main.c: 568:   case 3:
  2812                           
  2813                           
  2814                           ;main.c: 569:     RB4 = 1;
  2815  047D  0020               	movlb	0	; select bank0
  2816  047E  160D               	bsf	13,4	;volatile
  2817                           
  2818                           ;main.c: 570:     break;
  2819  047F  2CBC               	goto	l270
  2820  0480                     l263:	
  2821                           ;main.c: 571:   case 4:
  2822                           
  2823                           
  2824                           ;main.c: 572:     RB3 = 1;
  2825  0480  0020               	movlb	0	; select bank0
  2826  0481  158D               	bsf	13,3	;volatile
  2827                           
  2828                           ;main.c: 573:     break;
  2829  0482  2CBC               	goto	l270
  2830  0483                     l264:	
  2831                           ;main.c: 574:   case 5:
  2832                           
  2833                           
  2834                           ;main.c: 575:     RB2 = 1;
  2835  0483  0020               	movlb	0	; select bank0
  2836  0484  150D               	bsf	13,2	;volatile
  2837                           
  2838                           ;main.c: 576:     break;
  2839  0485  2CBC               	goto	l270
  2840  0486                     l265:	
  2841                           ;main.c: 577:   case 6:
  2842                           
  2843                           
  2844                           ;main.c: 578:     RB1 = 1;
  2845  0486  0020               	movlb	0	; select bank0
  2846  0487  148D               	bsf	13,1	;volatile
  2847                           
  2848                           ;main.c: 579:     break;
  2849  0488  2CBC               	goto	l270
  2850  0489                     l266:	
  2851                           ;main.c: 580:   case 7:
  2852                           
  2853                           
  2854                           ;main.c: 581:     RB0 = 1;
  2855  0489  0020               	movlb	0	; select bank0
  2856  048A  140D               	bsf	13,0	;volatile
  2857                           
  2858                           ;main.c: 582:     break;
  2859  048B  2CBC               	goto	l270
  2860  048C                     l267:	
  2861                           ;main.c: 583:   case 8:
  2862                           
  2863                           
  2864                           ;main.c: 584:     RD7 = 1;
  2865  048C  0020               	movlb	0	; select bank0
  2866  048D  178F               	bsf	15,7	;volatile
  2867                           
  2868                           ;main.c: 585:     break;
  2869  048E  2CBC               	goto	l270
  2870  048F                     l268:	
  2871                           ;main.c: 586:   case 9:
  2872                           
  2873                           
  2874                           ;main.c: 587:     RD6 = 1;
  2875  048F  0020               	movlb	0	; select bank0
  2876  0490  170F               	bsf	15,6	;volatile
  2877                           
  2878                           ;main.c: 588:     break;
  2879  0491  2CBC               	goto	l270
  2880  0492                     l934:
  2881  0492  0872               	movf	on_digit@digit,w
  2882  0493  00F0               	movwf	??_on_digit
  2883  0494  01F1               	clrf	??_on_digit+1
  2884  0495  1BF0               	btfsc	??_on_digit,7
  2885  0496  03F1               	decf	??_on_digit+1,f
  2886                           
  2887                           ; Switch on 2 bytes has been partitioned into a top level switch of size 1, and 1 sub-sw
      +                          itches
  2888                           ; Switch size 1, requested type "simple"
  2889                           ; Number of cases is 1, Range of values is 0 to 0
  2890                           ; switch strategies available:
  2891                           ; Name         Instructions Cycles
  2892                           ; simple_byte            4     3 (average)
  2893                           ; direct_byte            8     6 (fixed)
  2894                           ; jumptable            260     6 (fixed)
  2895                           ;	Chosen strategy is simple_byte
  2896  0497  0871               	movf	??_on_digit+1,w
  2897  0498  3A00               	xorlw	0	; case 0
  2898  0499  1903               	skipnz
  2899  049A  2C9C               	goto	l1992
  2900  049B  2CBC               	goto	l270
  2901  049C                     l1992:
  2902                           
  2903                           ; Switch size 1, requested type "simple"
  2904                           ; Number of cases is 10, Range of values is 0 to 9
  2905                           ; switch strategies available:
  2906                           ; Name         Instructions Cycles
  2907                           ; direct_byte           26     6 (fixed)
  2908                           ; simple_byte           31    16 (average)
  2909                           ; jumptable            260     6 (fixed)
  2910                           ;	Chosen strategy is simple_byte
  2911  049C  0870               	movf	??_on_digit,w
  2912  049D  3A00               	xorlw	0	; case 0
  2913  049E  1903               	skipnz
  2914  049F  2C74               	goto	l258
  2915  04A0  3A01               	xorlw	1	; case 1
  2916  04A1  1903               	skipnz
  2917  04A2  2C77               	goto	l260
  2918  04A3  3A03               	xorlw	3	; case 2
  2919  04A4  1903               	skipnz
  2920  04A5  2C7A               	goto	l261
  2921  04A6  3A01               	xorlw	1	; case 3
  2922  04A7  1903               	skipnz
  2923  04A8  2C7D               	goto	l262
  2924  04A9  3A07               	xorlw	7	; case 4
  2925  04AA  1903               	skipnz
  2926  04AB  2C80               	goto	l263
  2927  04AC  3A01               	xorlw	1	; case 5
  2928  04AD  1903               	skipnz
  2929  04AE  2C83               	goto	l264
  2930  04AF  3A03               	xorlw	3	; case 6
  2931  04B0  1903               	skipnz
  2932  04B1  2C86               	goto	l265
  2933  04B2  3A01               	xorlw	1	; case 7
  2934  04B3  1903               	skipnz
  2935  04B4  2C89               	goto	l266
  2936  04B5  3A0F               	xorlw	15	; case 8
  2937  04B6  1903               	skipnz
  2938  04B7  2C8C               	goto	l267
  2939  04B8  3A01               	xorlw	1	; case 9
  2940  04B9  1903               	skipnz
  2941  04BA  2C8F               	goto	l268
  2942  04BB  2CBC               	goto	l270
  2943  04BC                     l270:
  2944  04BC  0008               	return
  2945  04BD                     __end_of_on_digit:
  2946                           
  2947                           	psect	text3
  2948  0427                     __ptext3:	
  2949 ;; *************** function _off_digit *****************
  2950 ;; Defined at:
  2951 ;;		line 594 in file "main.c"
  2952 ;; Parameters:    Size  Location     Type
  2953 ;;  digit           1    wreg     char 
  2954 ;; Auto vars:     Size  Location     Type
  2955 ;;  digit           1    2[COMMON] char 
  2956 ;; Return value:  Size  Location     Type
  2957 ;;                  1    wreg      void 
  2958 ;; Registers used:
  2959 ;;		wreg, fsr0l, fsr0h, status,2, status,0
  2960 ;; Tracked objects:
  2961 ;;		On entry : 0/0
  2962 ;;		On exit  : 0/0
  2963 ;;		Unchanged: 0/0
  2964 ;; Data sizes:     COMMON   BANK0   BANK1   BANK2   BANK3   BANK4   BANK5   BANK6   BANK7   BANK8   BANK9  BANK10  BANK1
      +1  BANK12
  2965 ;;      Params:         0       0       0       0       0       0       0       0       0       0       0       0       
      +0       0
  2966 ;;      Locals:         1       0       0       0       0       0       0       0       0       0       0       0       
      +0       0
  2967 ;;      Temps:          2       0       0       0       0       0       0       0       0       0       0       0       
      +0       0
  2968 ;;      Totals:         3       0       0       0       0       0       0       0       0       0       0       0       
      +0       0
  2969 ;;Total ram usage:        3 bytes
  2970 ;; Hardware stack levels used:    1
  2971 ;; This function calls:
  2972 ;;		Nothing
  2973 ;; This function is called by:
  2974 ;;		_main
  2975 ;; This function uses a non-reentrant model
  2976 ;;
  2977                           
  2978                           
  2979                           ;psect for function _off_digit
  2980  0427                     _off_digit:
  2981                           
  2982                           ;incstack = 0
  2983                           ; Regs used in _off_digit: [wreg-fsr0h+status,2+status,0]
  2984                           ;off_digit@digit stored from wreg
  2985  0427  00F2               	movwf	off_digit@digit
  2986  0428                     l1070:
  2987                           
  2988                           ;main.c: 594: void off_digit(signed char digit);main.c: 595: {;main.c: 596:   switch (di
      +                          git)
  2989  0428  2C47               	goto	l1074
  2990  0429                     l274:	
  2991                           ;main.c: 597:   {;main.c: 598:   case 0:
  2992                           
  2993                           
  2994                           ;main.c: 599:     RB7 = 0;
  2995  0429  0020               	movlb	0	; select bank0
  2996  042A  138D               	bcf	13,7	;volatile
  2997                           
  2998                           ;main.c: 600:     break;
  2999  042B  2C71               	goto	l286
  3000  042C                     l276:	
  3001                           ;main.c: 601:   case 1:
  3002                           
  3003                           
  3004                           ;main.c: 602:     RB6 = 0;
  3005  042C  0020               	movlb	0	; select bank0
  3006  042D  130D               	bcf	13,6	;volatile
  3007                           
  3008                           ;main.c: 603:     break;
  3009  042E  2C71               	goto	l286
  3010  042F                     l277:	
  3011                           ;main.c: 604:   case 2:
  3012                           
  3013                           
  3014                           ;main.c: 605:     RB5 = 0;
  3015  042F  0020               	movlb	0	; select bank0
  3016  0430  128D               	bcf	13,5	;volatile
  3017                           
  3018                           ;main.c: 606:     break;
  3019  0431  2C71               	goto	l286
  3020  0432                     l278:	
  3021                           ;main.c: 607:   case 3:
  3022                           
  3023                           
  3024                           ;main.c: 608:     RB4 = 0;
  3025  0432  0020               	movlb	0	; select bank0
  3026  0433  120D               	bcf	13,4	;volatile
  3027                           
  3028                           ;main.c: 609:     break;
  3029  0434  2C71               	goto	l286
  3030  0435                     l279:	
  3031                           ;main.c: 610:   case 4:
  3032                           
  3033                           
  3034                           ;main.c: 611:     RB3 = 0;
  3035  0435  0020               	movlb	0	; select bank0
  3036  0436  118D               	bcf	13,3	;volatile
  3037                           
  3038                           ;main.c: 612:     break;
  3039  0437  2C71               	goto	l286
  3040  0438                     l280:	
  3041                           ;main.c: 613:   case 5:
  3042                           
  3043                           
  3044                           ;main.c: 614:     RB2 = 0;
  3045  0438  0020               	movlb	0	; select bank0
  3046  0439  110D               	bcf	13,2	;volatile
  3047                           
  3048                           ;main.c: 615:     break;
  3049  043A  2C71               	goto	l286
  3050  043B                     l281:	
  3051                           ;main.c: 616:   case 6:
  3052                           
  3053                           
  3054                           ;main.c: 617:     RB1 = 0;
  3055  043B  0020               	movlb	0	; select bank0
  3056  043C  108D               	bcf	13,1	;volatile
  3057                           
  3058                           ;main.c: 618:     break;
  3059  043D  2C71               	goto	l286
  3060  043E                     l282:	
  3061                           ;main.c: 619:   case 7:
  3062                           
  3063                           
  3064                           ;main.c: 620:     RB0 = 0;
  3065  043E  0020               	movlb	0	; select bank0
  3066  043F  100D               	bcf	13,0	;volatile
  3067                           
  3068                           ;main.c: 621:     break;
  3069  0440  2C71               	goto	l286
  3070  0441                     l283:	
  3071                           ;main.c: 622:   case 8:
  3072                           
  3073                           
  3074                           ;main.c: 623:     RD7 = 0;
  3075  0441  0020               	movlb	0	; select bank0
  3076  0442  138F               	bcf	15,7	;volatile
  3077                           
  3078                           ;main.c: 624:     break;
  3079  0443  2C71               	goto	l286
  3080  0444                     l284:	
  3081                           ;main.c: 625:   case 9:
  3082                           
  3083                           
  3084                           ;main.c: 626:     RD6 = 0;
  3085  0444  0020               	movlb	0	; select bank0
  3086  0445  130F               	bcf	15,6	;volatile
  3087                           
  3088                           ;main.c: 627:     break;
  3089  0446  2C71               	goto	l286
  3090  0447                     l1074:
  3091  0447  0872               	movf	off_digit@digit,w
  3092  0448  00F0               	movwf	??_off_digit
  3093  0449  01F1               	clrf	??_off_digit+1
  3094  044A  1BF0               	btfsc	??_off_digit,7
  3095  044B  03F1               	decf	??_off_digit+1,f
  3096                           
  3097                           ; Switch on 2 bytes has been partitioned into a top level switch of size 1, and 1 sub-sw
      +                          itches
  3098                           ; Switch size 1, requested type "simple"
  3099                           ; Number of cases is 1, Range of values is 0 to 0
  3100                           ; switch strategies available:
  3101                           ; Name         Instructions Cycles
  3102                           ; simple_byte            4     3 (average)
  3103                           ; direct_byte            8     6 (fixed)
  3104                           ; jumptable            260     6 (fixed)
  3105                           ;	Chosen strategy is simple_byte
  3106  044C  0871               	movf	??_off_digit+1,w
  3107  044D  3A00               	xorlw	0	; case 0
  3108  044E  1903               	skipnz
  3109  044F  2C51               	goto	l1994
  3110  0450  2C71               	goto	l286
  3111  0451                     l1994:
  3112                           
  3113                           ; Switch size 1, requested type "simple"
  3114                           ; Number of cases is 10, Range of values is 0 to 9
  3115                           ; switch strategies available:
  3116                           ; Name         Instructions Cycles
  3117                           ; direct_byte           26     6 (fixed)
  3118                           ; simple_byte           31    16 (average)
  3119                           ; jumptable            260     6 (fixed)
  3120                           ;	Chosen strategy is simple_byte
  3121  0451  0870               	movf	??_off_digit,w
  3122  0452  3A00               	xorlw	0	; case 0
  3123  0453  1903               	skipnz
  3124  0454  2C29               	goto	l274
  3125  0455  3A01               	xorlw	1	; case 1
  3126  0456  1903               	skipnz
  3127  0457  2C2C               	goto	l276
  3128  0458  3A03               	xorlw	3	; case 2
  3129  0459  1903               	skipnz
  3130  045A  2C2F               	goto	l277
  3131  045B  3A01               	xorlw	1	; case 3
  3132  045C  1903               	skipnz
  3133  045D  2C32               	goto	l278
  3134  045E  3A07               	xorlw	7	; case 4
  3135  045F  1903               	skipnz
  3136  0460  2C35               	goto	l279
  3137  0461  3A01               	xorlw	1	; case 5
  3138  0462  1903               	skipnz
  3139  0463  2C38               	goto	l280
  3140  0464  3A03               	xorlw	3	; case 6
  3141  0465  1903               	skipnz
  3142  0466  2C3B               	goto	l281
  3143  0467  3A01               	xorlw	1	; case 7
  3144  0468  1903               	skipnz
  3145  0469  2C3E               	goto	l282
  3146  046A  3A0F               	xorlw	15	; case 8
  3147  046B  1903               	skipnz
  3148  046C  2C41               	goto	l283
  3149  046D  3A01               	xorlw	1	; case 9
  3150  046E  1903               	skipnz
  3151  046F  2C44               	goto	l284
  3152  0470  2C71               	goto	l286
  3153  0471                     l286:
  3154  0471  0008               	return
  3155  0472                     __end_of_off_digit:
  3156                           
  3157                           	psect	text4
  3158  03EF                     __ptext4:	
  3159 ;; *************** function _SYSTEM_Initialize *****************
  3160 ;; Defined at:
  3161 ;;		line 50 in file "mcc_generated_files/mcc.c"
  3162 ;; Parameters:    Size  Location     Type
  3163 ;;		None
  3164 ;; Auto vars:     Size  Location     Type
  3165 ;;		None
  3166 ;; Return value:  Size  Location     Type
  3167 ;;                  1    wreg      void 
  3168 ;; Registers used:
  3169 ;;		wreg, status,2, status,0, pclath, cstack
  3170 ;; Tracked objects:
  3171 ;;		On entry : 0/0
  3172 ;;		On exit  : 0/0
  3173 ;;		Unchanged: 0/0
  3174 ;; Data sizes:     COMMON   BANK0   BANK1   BANK2   BANK3   BANK4   BANK5   BANK6   BANK7   BANK8   BANK9  BANK10  BANK1
      +1  BANK12
  3175 ;;      Params:         0       0       0       0       0       0       0       0       0       0       0       0       
      +0       0
  3176 ;;      Locals:         0       0       0       0       0       0       0       0       0       0       0       0       
      +0       0
  3177 ;;      Temps:          0       0       0       0       0       0       0       0       0       0       0       0       
      +0       0
  3178 ;;      Totals:         0       0       0       0       0       0       0       0       0       0       0       0       
      +0       0
  3179 ;;Total ram usage:        0 bytes
  3180 ;; Hardware stack levels used:    1
  3181 ;; Hardware stack levels required when called:    1
  3182 ;; This function calls:
  3183 ;;		_OSCILLATOR_Initialize
  3184 ;;		_PIN_MANAGER_Initialize
  3185 ;;		_WDT_Initialize
  3186 ;; This function is called by:
  3187 ;;		_main
  3188 ;; This function uses a non-reentrant model
  3189 ;;
  3190                           
  3191                           
  3192                           ;psect for function _SYSTEM_Initialize
  3193  03EF                     _SYSTEM_Initialize:
  3194  03EF                     l940:	
  3195                           ;incstack = 0
  3196                           ; Regs used in _SYSTEM_Initialize: [wreg+status,2+status,0+pclath+cstack]
  3197                           
  3198                           
  3199                           ;mcc_generated_files/mcc.c: 53:     PIN_MANAGER_Initialize();
  3200  03EF  3184  240D  3183   	fcall	_PIN_MANAGER_Initialize
  3201                           
  3202                           ;mcc_generated_files/mcc.c: 54:     OSCILLATOR_Initialize();
  3203  03F2  3183  23E8  3183   	fcall	_OSCILLATOR_Initialize
  3204                           
  3205                           ;mcc_generated_files/mcc.c: 55:     WDT_Initialize();
  3206  03F5  3183  23DE  3183   	fcall	_WDT_Initialize
  3207  03F8                     l59:
  3208  03F8  0008               	return
  3209  03F9                     __end_of_SYSTEM_Initialize:
  3210                           
  3211                           	psect	text5
  3212  03DE                     __ptext5:	
  3213 ;; *************** function _WDT_Initialize *****************
  3214 ;; Defined at:
  3215 ;;		line 68 in file "mcc_generated_files/mcc.c"
  3216 ;; Parameters:    Size  Location     Type
  3217 ;;		None
  3218 ;; Auto vars:     Size  Location     Type
  3219 ;;		None
  3220 ;; Return value:  Size  Location     Type
  3221 ;;                  1    wreg      void 
  3222 ;; Registers used:
  3223 ;;		wreg
  3224 ;; Tracked objects:
  3225 ;;		On entry : 0/0
  3226 ;;		On exit  : 0/0
  3227 ;;		Unchanged: 0/0
  3228 ;; Data sizes:     COMMON   BANK0   BANK1   BANK2   BANK3   BANK4   BANK5   BANK6   BANK7   BANK8   BANK9  BANK10  BANK1
      +1  BANK12
  3229 ;;      Params:         0       0       0       0       0       0       0       0       0       0       0       0       
      +0       0
  3230 ;;      Locals:         0       0       0       0       0       0       0       0       0       0       0       0       
      +0       0
  3231 ;;      Temps:          0       0       0       0       0       0       0       0       0       0       0       0       
      +0       0
  3232 ;;      Totals:         0       0       0       0       0       0       0       0       0       0       0       0       
      +0       0
  3233 ;;Total ram usage:        0 bytes
  3234 ;; Hardware stack levels used:    1
  3235 ;; This function calls:
  3236 ;;		Nothing
  3237 ;; This function is called by:
  3238 ;;		_SYSTEM_Initialize
  3239 ;; This function uses a non-reentrant model
  3240 ;;
  3241                           
  3242                           
  3243                           ;psect for function _WDT_Initialize
  3244  03DE                     _WDT_Initialize:
  3245  03DE                     l928:	
  3246                           ;incstack = 0
  3247                           ; Regs used in _WDT_Initialize: [wreg]
  3248                           
  3249                           
  3250                           ;mcc_generated_files/mcc.c: 71:     WDTCON = 0x16;
  3251  03DE  3016               	movlw	22
  3252  03DF  0021               	movlb	1	; select bank1
  3253  03E0  0097               	movwf	23	;volatile
  3254  03E1                     l65:
  3255  03E1  0008               	return
  3256  03E2                     __end_of_WDT_Initialize:
  3257                           
  3258                           	psect	text6
  3259  040D                     __ptext6:	
  3260 ;; *************** function _PIN_MANAGER_Initialize *****************
  3261 ;; Defined at:
  3262 ;;		line 55 in file "mcc_generated_files/pin_manager.c"
  3263 ;; Parameters:    Size  Location     Type
  3264 ;;		None
  3265 ;; Auto vars:     Size  Location     Type
  3266 ;;		None
  3267 ;; Return value:  Size  Location     Type
  3268 ;;                  1    wreg      void 
  3269 ;; Registers used:
  3270 ;;		wreg, status,2
  3271 ;; Tracked objects:
  3272 ;;		On entry : 0/0
  3273 ;;		On exit  : 0/0
  3274 ;;		Unchanged: 0/0
  3275 ;; Data sizes:     COMMON   BANK0   BANK1   BANK2   BANK3   BANK4   BANK5   BANK6   BANK7   BANK8   BANK9  BANK10  BANK1
      +1  BANK12
  3276 ;;      Params:         0       0       0       0       0       0       0       0       0       0       0       0       
      +0       0
  3277 ;;      Locals:         0       0       0       0       0       0       0       0       0       0       0       0       
      +0       0
  3278 ;;      Temps:          0       0       0       0       0       0       0       0       0       0       0       0       
      +0       0
  3279 ;;      Totals:         0       0       0       0       0       0       0       0       0       0       0       0       
      +0       0
  3280 ;;Total ram usage:        0 bytes
  3281 ;; Hardware stack levels used:    1
  3282 ;; This function calls:
  3283 ;;		Nothing
  3284 ;; This function is called by:
  3285 ;;		_SYSTEM_Initialize
  3286 ;; This function uses a non-reentrant model
  3287 ;;
  3288                           
  3289                           
  3290                           ;psect for function _PIN_MANAGER_Initialize
  3291  040D                     _PIN_MANAGER_Initialize:
  3292  040D                     l894:	
  3293                           ;incstack = 0
  3294                           ; Regs used in _PIN_MANAGER_Initialize: [wreg+status,2]
  3295                           
  3296                           
  3297                           ;mcc_generated_files/pin_manager.c: 60:     LATE = 0x00;
  3298  040D  0022               	movlb	2	; select bank2
  3299  040E  0190               	clrf	16	;volatile
  3300                           
  3301                           ;mcc_generated_files/pin_manager.c: 61:     LATD = 0x00;
  3302  040F  018F               	clrf	15	;volatile
  3303                           
  3304                           ;mcc_generated_files/pin_manager.c: 62:     LATA = 0x00;
  3305  0410  018C               	clrf	12	;volatile
  3306                           
  3307                           ;mcc_generated_files/pin_manager.c: 63:     LATB = 0x00;
  3308  0411  018D               	clrf	13	;volatile
  3309                           
  3310                           ;mcc_generated_files/pin_manager.c: 64:     LATC = 0x00;
  3311  0412  018E               	clrf	14	;volatile
  3312  0413                     l896:
  3313                           
  3314                           ;mcc_generated_files/pin_manager.c: 69:     TRISE = 0x08;
  3315  0413  3008               	movlw	8
  3316  0414  0021               	movlb	1	; select bank1
  3317  0415  0090               	movwf	16	;volatile
  3318  0416                     l898:
  3319                           
  3320                           ;mcc_generated_files/pin_manager.c: 70:     TRISA = 0x00;
  3321  0416  018C               	clrf	12	;volatile
  3322  0417                     l900:
  3323                           
  3324                           ;mcc_generated_files/pin_manager.c: 71:     TRISB = 0x00;
  3325  0417  018D               	clrf	13	;volatile
  3326  0418                     l902:
  3327                           
  3328                           ;mcc_generated_files/pin_manager.c: 72:     TRISC = 0x00;
  3329  0418  018E               	clrf	14	;volatile
  3330  0419                     l904:
  3331                           
  3332                           ;mcc_generated_files/pin_manager.c: 73:     TRISD = 0x00;
  3333  0419  018F               	clrf	15	;volatile
  3334  041A                     l906:
  3335                           
  3336                           ;mcc_generated_files/pin_manager.c: 78:     ANSELD = 0x00;
  3337  041A  0023               	movlb	3	; select bank3
  3338  041B  018F               	clrf	15	;volatile
  3339  041C                     l908:
  3340                           
  3341                           ;mcc_generated_files/pin_manager.c: 79:     ANSELB = 0x00;
  3342  041C  018D               	clrf	13	;volatile
  3343  041D                     l910:
  3344                           
  3345                           ;mcc_generated_files/pin_manager.c: 80:     ANSELE = 0x00;
  3346  041D  0190               	clrf	16	;volatile
  3347  041E                     l912:
  3348                           
  3349                           ;mcc_generated_files/pin_manager.c: 81:     ANSELA = 0x00;
  3350  041E  018C               	clrf	12	;volatile
  3351  041F                     l914:
  3352                           
  3353                           ;mcc_generated_files/pin_manager.c: 86:     WPUE = 0x00;
  3354  041F  0024               	movlb	4	; select bank4
  3355  0420  0190               	clrf	16	;volatile
  3356  0421                     l916:
  3357                           
  3358                           ;mcc_generated_files/pin_manager.c: 87:     WPUB = 0x00;
  3359  0421  018D               	clrf	13	;volatile
  3360  0422                     l918:
  3361                           
  3362                           ;mcc_generated_files/pin_manager.c: 88:     OPTION_REGbits.nWPUEN = 1;
  3363  0422  0021               	movlb	1	; select bank1
  3364  0423  1795               	bsf	21,7	;volatile
  3365  0424                     l920:
  3366                           
  3367                           ;mcc_generated_files/pin_manager.c: 94:     APFCON = 0x00;
  3368  0424  0022               	movlb	2	; select bank2
  3369  0425  019D               	clrf	29	;volatile
  3370  0426                     l39:
  3371  0426  0008               	return
  3372  0427                     __end_of_PIN_MANAGER_Initialize:
  3373                           
  3374                           	psect	text7
  3375  03E8                     __ptext7:	
  3376 ;; *************** function _OSCILLATOR_Initialize *****************
  3377 ;; Defined at:
  3378 ;;		line 58 in file "mcc_generated_files/mcc.c"
  3379 ;; Parameters:    Size  Location     Type
  3380 ;;		None
  3381 ;; Auto vars:     Size  Location     Type
  3382 ;;		None
  3383 ;; Return value:  Size  Location     Type
  3384 ;;                  1    wreg      void 
  3385 ;; Registers used:
  3386 ;;		wreg, status,2
  3387 ;; Tracked objects:
  3388 ;;		On entry : 0/0
  3389 ;;		On exit  : 0/0
  3390 ;;		Unchanged: 0/0
  3391 ;; Data sizes:     COMMON   BANK0   BANK1   BANK2   BANK3   BANK4   BANK5   BANK6   BANK7   BANK8   BANK9  BANK10  BANK1
      +1  BANK12
  3392 ;;      Params:         0       0       0       0       0       0       0       0       0       0       0       0       
      +0       0
  3393 ;;      Locals:         0       0       0       0       0       0       0       0       0       0       0       0       
      +0       0
  3394 ;;      Temps:          0       0       0       0       0       0       0       0       0       0       0       0       
      +0       0
  3395 ;;      Totals:         0       0       0       0       0       0       0       0       0       0       0       0       
      +0       0
  3396 ;;Total ram usage:        0 bytes
  3397 ;; Hardware stack levels used:    1
  3398 ;; This function calls:
  3399 ;;		Nothing
  3400 ;; This function is called by:
  3401 ;;		_SYSTEM_Initialize
  3402 ;; This function uses a non-reentrant model
  3403 ;;
  3404                           
  3405                           
  3406                           ;psect for function _OSCILLATOR_Initialize
  3407  03E8                     _OSCILLATOR_Initialize:
  3408  03E8                     l922:	
  3409                           ;incstack = 0
  3410                           ; Regs used in _OSCILLATOR_Initialize: [wreg+status,2]
  3411                           
  3412                           
  3413                           ;mcc_generated_files/mcc.c: 61:     OSCCON = 0x72;
  3414  03E8  3072               	movlw	114
  3415  03E9  0021               	movlb	1	; select bank1
  3416  03EA  0099               	movwf	25	;volatile
  3417  03EB                     l924:
  3418                           
  3419                           ;mcc_generated_files/mcc.c: 63:     OSCTUNE = 0x00;
  3420  03EB  0198               	clrf	24	;volatile
  3421  03EC                     l926:
  3422                           
  3423                           ;mcc_generated_files/mcc.c: 65:     BORCON = 0x00;
  3424  03EC  0022               	movlb	2	; select bank2
  3425  03ED  0196               	clrf	22	;volatile
  3426  03EE                     l62:
  3427  03EE  0008               	return
  3428  03EF                     __end_of_OSCILLATOR_Initialize:
  3429  007E                     btemp	set	126	;btemp
  3430  007E                     wtemp0	set	126
  3431                           
  3432                           	psect	config
  3433                           
  3434                           ;Config register CONFIG1 @ 0x8007
  3435                           ;	Oscillator Selection
  3436                           ;	FOSC = INTOSC, INTOSC oscillator: I/O function on CLKIN pin
  3437                           ;	Watchdog Timer Enable
  3438                           ;	WDTE = OFF, WDT disabled
  3439                           ;	Power-up Timer Enable
  3440                           ;	PWRTE = OFF, PWRT disabled
  3441                           ;	MCLR Pin Function Select
  3442                           ;	MCLRE = ON, MCLR/VPP pin function is MCLR
  3443                           ;	Flash Program Memory Code Protection
  3444                           ;	CP = OFF, Program memory code protection is disabled
  3445                           ;	Data Memory Code Protection
  3446                           ;	CPD = OFF, Data memory code protection is disabled
  3447                           ;	Brown-out Reset Enable
  3448                           ;	BOREN = ON, Brown-out Reset enabled
  3449                           ;	Clock Out Enable
  3450                           ;	CLKOUTEN = OFF, CLKOUT function is disabled. I/O or oscillator function on the CLKOUT 
      +                          pin
  3451                           ;	Internal/External Switchover
  3452                           ;	IESO = ON, Internal/External Switchover mode is enabled
  3453                           ;	Fail-Safe Clock Monitor Enable
  3454                           ;	FCMEN = ON, Fail-Safe Clock Monitor is enabled
  3455  8007                     	org	32775
  3456  8007  3FE4               	dw	16356
  3457                           
  3458                           ;Config register CONFIG2 @ 0x8008
  3459                           ;	Flash Memory Self-Write Protection
  3460                           ;	WRT = OFF, Write protection off
  3461                           ;	Voltage Regulator Capacitor Enable
  3462                           ;	VCAPEN = OFF, All VCAP pin functionality is disabled
  3463                           ;	PLL Enable
  3464                           ;	PLLEN = OFF, 4x PLL disabled
  3465                           ;	Stack Overflow/Underflow Reset Enable
  3466                           ;	STVREN = ON, Stack Overflow or Underflow will cause a Reset
  3467                           ;	Brown-out Reset Voltage Selection
  3468                           ;	BORV = LO, Brown-out Reset Voltage (Vbor), low trip point selected.
  3469                           ;	Low-Voltage Programming Enable
  3470                           ;	LVP = ON, Low-voltage programming enabled
  3471  8008                     	org	32776
  3472  8008  3EFF               	dw	16127

Data Sizes:
    Strings     0
    Constant    0
    Data        20
    BSS         0
    Persistent  32
    Stack       0

Auto Spaces:
    Space          Size  Autos    Used
    COMMON           14     11      11
    BANK0            80      0      20
    BANK1            80      0       0
    BANK2            80      0       0
    BANK3            80      0       0
    BANK4            80      0       0
    BANK5            80      0       0
    BANK6            80      0       0
    BANK7            80      0       0
    BANK8            80      0       0
    BANK9            80      0       0
    BANK10           80      0       0
    BANK11           80      0       0
    BANK12           48      0       0

Pointer List with Targets:

    None.

Critical Paths under _main in COMMON

    _main->_show_character
    _show_character->_on_digit

Critical Paths under _main in BANK0

    None.

Critical Paths under _main in BANK1

    None.

Critical Paths under _main in BANK2

    None.

Critical Paths under _main in BANK3

    None.

Critical Paths under _main in BANK4

    None.

Critical Paths under _main in BANK5

    None.

Critical Paths under _main in BANK6

    None.

Critical Paths under _main in BANK7

    None.

Critical Paths under _main in BANK8

    None.

Critical Paths under _main in BANK9

    None.

Critical Paths under _main in BANK10

    None.

Critical Paths under _main in BANK11

    None.

Critical Paths under _main in BANK12

    None.

Call Graph Tables:

 ---------------------------------------------------------------------------------
 (Depth) Function   	        Calls       Base Space   Used Autos Params    Refs
 ---------------------------------------------------------------------------------
 (0) _main                                                 2     2      0    1949
                                              9 COMMON     2     2      0
                  _SYSTEM_Initialize
                          _off_digit
                     _show_character
 ---------------------------------------------------------------------------------
 (1) _show_character                                       6     4      2    1934
                                              3 COMMON     6     4      2
                           _on_digit
 ---------------------------------------------------------------------------------
 (2) _on_digit                                             3     3      0      15
                                              0 COMMON     3     3      0
 ---------------------------------------------------------------------------------
 (1) _off_digit                                            3     3      0      15
                                              0 COMMON     3     3      0
 ---------------------------------------------------------------------------------
 (1) _SYSTEM_Initialize                                    0     0      0       0
              _OSCILLATOR_Initialize
             _PIN_MANAGER_Initialize
                     _WDT_Initialize
 ---------------------------------------------------------------------------------
 (2) _WDT_Initialize                                       0     0      0       0
 ---------------------------------------------------------------------------------
 (2) _PIN_MANAGER_Initialize                               0     0      0       0
 ---------------------------------------------------------------------------------
 (2) _OSCILLATOR_Initialize                                0     0      0       0
 ---------------------------------------------------------------------------------
 Estimated maximum stack depth 2
 ---------------------------------------------------------------------------------

 Call Graph Graphs:

 _main (ROOT)
   _SYSTEM_Initialize
     _OSCILLATOR_Initialize
     _PIN_MANAGER_Initialize
     _WDT_Initialize
   _off_digit
   _show_character
     _on_digit

 Address spaces:
Name               Size   Autos  Total    Cost      Usage
BIGRAM             3F0      0       0       0        0.0%
EEDATA             100      0       0       0        0.0%
NULL                 0      0       0       0        0.0%
CODE                 0      0       0       0        0.0%
BITCOMMON            E      0       0       1        0.0%
BITSFR0              0      0       0       1        0.0%
SFR0                 0      0       0       1        0.0%
COMMON               E      B       B       2       78.6%
BITSFR1              0      0       0       2        0.0%
SFR1                 0      0       0       2        0.0%
BITSFR2              0      0       0       3        0.0%
SFR2                 0      0       0       3        0.0%
STACK                0      0       0       3        0.0%
BITBANK0            50      0       0       4        0.0%
BITSFR3              0      0       0       4        0.0%
SFR3                 0      0       0       4        0.0%
BANK0               50      0      14       5       25.0%
BITSFR4              0      0       0       5        0.0%
SFR4                 0      0       0       5        0.0%
BITBANK1            50      0       0       6        0.0%
BITSFR5              0      0       0       6        0.0%
SFR5                 0      0       0       6        0.0%
BANK1               50      0       0       7        0.0%
BITSFR6              0      0       0       7        0.0%
SFR6                 0      0       0       7        0.0%
BITBANK2            50      0       0       8        0.0%
BITSFR7              0      0       0       8        0.0%
SFR7                 0      0       0       8        0.0%
BANK2               50      0       0       9        0.0%
BITSFR8              0      0       0       9        0.0%
SFR8                 0      0       0       9        0.0%
BITBANK3            50      0       0      10        0.0%
BITSFR9              0      0       0      10        0.0%
SFR9                 0      0       0      10        0.0%
BANK3               50      0       0      11        0.0%
BITSFR10             0      0       0      11        0.0%
SFR10                0      0       0      11        0.0%
BITBANK4            50      0       0      12        0.0%
BITSFR11             0      0       0      12        0.0%
SFR11                0      0       0      12        0.0%
BANK4               50      0       0      13        0.0%
BITSFR12             0      0       0      13        0.0%
SFR12                0      0       0      13        0.0%
BITBANK5            50      0       0      14        0.0%
BITSFR13             0      0       0      14        0.0%
SFR13                0      0       0      14        0.0%
BANK5               50      0       0      15        0.0%
BITSFR14             0      0       0      15        0.0%
SFR14                0      0       0      15        0.0%
BITBANK6            50      0       0      16        0.0%
BITSFR15             0      0       0      16        0.0%
SFR15                0      0       0      16        0.0%
BANK6               50      0       0      17        0.0%
BITSFR16             0      0       0      17        0.0%
SFR16                0      0       0      17        0.0%
BITBANK7            50      0       0      18        0.0%
BITSFR17             0      0       0      18        0.0%
SFR17                0      0       0      18        0.0%
BANK7               50      0       0      19        0.0%
BITSFR18             0      0       0      19        0.0%
SFR18                0      0       0      19        0.0%
BITSFR19             0      0       0      20        0.0%
SFR19                0      0       0      20        0.0%
ABS                  0      0      1F      20        0.0%
BITBANK8            50      0       0      21        0.0%
BITSFR20             0      0       0      21        0.0%
SFR20                0      0       0      21        0.0%
BANK8               50      0       0      22        0.0%
BITSFR21             0      0       0      22        0.0%
SFR21                0      0       0      22        0.0%
BITBANK9            50      0       0      23        0.0%
BITSFR22             0      0       0      23        0.0%
SFR22                0      0       0      23        0.0%
BANK9               50      0       0      24        0.0%
BITSFR23             0      0       0      24        0.0%
SFR23                0      0       0      24        0.0%
BITBANK10           50      0       0      25        0.0%
BITSFR24             0      0       0      25        0.0%
SFR24                0      0       0      25        0.0%
BANK10              50      0       0      26        0.0%
BITSFR25             0      0       0      26        0.0%
SFR25                0      0       0      26        0.0%
BITBANK11           50      0       0      27        0.0%
BITSFR26             0      0       0      27        0.0%
SFR26                0      0       0      27        0.0%
BANK11              50      0       0      28        0.0%
BITSFR27             0      0       0      28        0.0%
SFR27                0      0       0      28        0.0%
BITBANK12           30      0       0      29        0.0%
BITSFR28             0      0       0      29        0.0%
SFR28                0      0       0      29        0.0%
BANK12              30      0       0      30        0.0%
BITSFR29             0      0       0      30        0.0%
SFR29                0      0       0      30        0.0%
BITSFR30             0      0       0      31        0.0%
SFR30                0      0       0      31        0.0%
DATA                 0      0      1F      31        0.0%
BITSFR31             0      0       0      32        0.0%
SFR31                0      0       0      32        0.0%


Microchip Technology PIC Macro Assembler V2.31 build 20201012212115 
Symbol Table                                                                                   Sat Feb 25 17:01:13 2023

                             l62 03EE                               l39 0426                               l65 03E1  
                             l59 03F8                               u40 059C                               u41 059B  
                             u50 05A5                               u51 05A4                               u60 05B2  
                             u61 05B1                               u77 04E5                               u87 04F8  
                             u97 0521                              l200 0690                              l204 06A9  
                            l213 06CF                              l222 06F5                              l206 06AA  
                            l215 06D0                              l151 05CF                              l232 071B  
                            l224 06F6                              l208 06B0                              l144 05B3  
                            l241 0741                              l217 06D6                              l209 06B6  
                            l161 05ED                              l153 05D2                              l234 0721  
                            l226 06FC                              l218 06DC                              l154 05D5  
                            l146 05B6                              l251 076C                              l243 0747  
                            l235 0727                              l227 0702                              l171 0613  
                            l163 05F3                              l147 05B9                              l260 0477  
                            l252 0772                              l244 074D                              l180 0639  
                            l164 05F9                              l261 047A                              l173 0619  
                            l149 05EB                              l262 047D                              l270 04BC  
                            l254 07F0                              l190 0664                              l182 063F  
                            l174 061F                              l263 0480                              l239 0740  
                            l191 066A                              l183 0645                              l159 05EC  
                            l280 0438                              l264 0483                              l281 043B  
                            l265 0486                              l249 0766                              l169 0612  
                            l282 043E                              l274 0429                              l266 0489  
                            l258 0474                              l178 0638                              l283 0441  
                            l267 048C                              l195 0683                              l284 0444  
                            l276 042C                              l268 048F                              l188 065E  
                            l277 042F                              l197 0684                              l278 0432  
                            l286 0471                              l279 0435                              l199 068A  
                            l900 0417                              l910 041D                              l902 0418  
                            l920 0424                              l912 041E                              l904 0419  
                            l922 03E8                              l914 041F                              l906 041A  
                            l930 0473                              l924 03EB                              l916 0421  
                            l908 041C                              l940 03EF                              l926 03EC  
                            l918 0422                              l934 0492                              l928 03DE  
                            l894 040D                              l896 0413                              l898 0416  
                            _RA0 0060                              _RA1 0061                              _RA2 0062  
                            _RB0 0068                              _RA3 0063                              _RB1 0069  
                            _RA4 0064                              _RC0 0070                              _RB2 006A  
                            _RA5 0065                              _RC1 0071                              _RB3 006B  
                            _RD0 0078                              _RA6 0066                              _RC2 0072  
                            _RB4 006C                              _RA7 0067                              _RB5 006D  
                            _RE0 0080                              _RB6 006E                              _RE1 0081  
                            _RB7 006F                              _RE2 0082                              _RD6 007E  
                            _RD7 007F                              u107 0534                              u117 0552  
                            u127 0561                              u137 057F                              u147 058E  
                            wreg 0009                             l1070 0428                             l1074 0447  
                           l1510 0708                             l1502 06BC                             l1600 04F3  
                           l1522 0778                             l1514 072D                             l1506 06E2  
                           l1610 0520                             l1602 04F7                             l1460 059C  
                           l1620 0537                             l1612 0527                             l1604 04FB  
                           l1518 0753                             l1526 078B                             l1462 059E  
                           l1630 0560                             l1622 0544                             l1614 052B  
                           l1606 0506                             l1528 07EC                             l1464 05A5  
                           l1640 0589                             l1632 0564                             l1624 0551  
                           l1616 052F                             l1608 0513                             l1490 064B  
                           l1482 05FF                             l1474 05BC                             l1466 05A8  
                           l1458 0595                             l1642 058D                             l1634 0571  
                           l1626 0558                             l1618 0533                             l1468 05AC  
                           l1636 057E                             l1628 055C                             l1494 0670  
                           l1486 0625                             l1478 05D8                             l1638 0585  
                           l1590 04CA                             l1592 04D7                             l1498 0696  
                           l1594 04E4                             l1586 04BD                             l1596 04EB  
                           l1588 04C0                             l1598 04EF                             l1970 062D  
                           l1980 06EA                             l1972 0653                             l1964 05C4  
                           l1990 0793                             l1982 0710                             l1974 0678  
                           l1966 05E0                             l1992 049C                             l1984 0735  
                           l1976 069E                             l1968 0607                             l1994 0451  
                           l1986 075B                             l1978 06C4                             l1988 0780  
                           _LATA 010C                             _LATB 010D                             _LATC 010E  
                           _LATD 010F                             _LATE 0110                             _WPUB 020D  
                           _WPUE 0210                             _main 04BD                             fsr0h 0005  
                           fsr1h 0007                             fsr0l 0004                             fsr1l 0006  
                           btemp 007E                             start 0002   __size_of_OSCILLATOR_Initialize 0007  
  __end_of_OSCILLATOR_Initialize 03EF                            ?_main 0070                            _TRISA 008C  
                          _TRISB 008D                            _TRISC 008E                            _TRISD 008F  
                          _TRISE 0090                            _chars 0020                   _WDT_Initialize 03DE  
                          status 0003                            wtemp0 007E                  __initialization 07F1  
                   __end_of_main 0594                    on_digit@digit 0072                           ??_main 0079  
               ??_show_character 0075           __end_of_WDT_Initialize 03E2                           _APFCON 011D  
                         _ANSELA 018C                           _ANSELB 018D                           _ANSELD 018F  
                         _ANSELE 0190                           _BORCON 0116                           _OSCCON 0099  
                         _WDTCON 0097                 __end_of_on_digit 04BD                  ?_WDT_Initialize 0070  
              _SYSTEM_Initialize 03EF          __end_of__initialization 07FD               ?_SYSTEM_Initialize 0070  
                 __pcstackCOMMON 0070                     __pidataBANK0 03F9              ??_SYSTEM_Initialize 0070  
                 _OPTION_REGbits 0095        __end_of_SYSTEM_Initialize 03F9               __size_of_off_digit 004B  
                     __pmaintext 04BD                          _OSCTUNE 0098                        ?_on_digit 0070  
                        __ptext1 0594                          __ptext2 0472                          __ptext3 0427  
                        __ptext4 03EF                          __ptext5 03DE                          __ptext6 040D  
                        __ptext7 03E8                __end_of_off_digit 0472            _OSCILLATOR_Initialize 03E8  
       ??_PIN_MANAGER_Initialize 0070       __size_of_SYSTEM_Initialize 000A             end_of_initialization 07FD  
                 off_digit@digit 0072                          init_ram 03E2                          initloop 03E3  
                     ??_on_digit 0070                 ??_WDT_Initialize 0070           ?_OSCILLATOR_Initialize 0070  
            start_initialization 07F1  __size_of_PIN_MANAGER_Initialize 001A          __size_of_show_character 025D  
                    __pdataBANK0 0020                        ___latbits 0003           _PIN_MANAGER_Initialize 040D  
              __size_of_on_digit 004B          show_character@character 0073                        _off_digit 0427  
              show_character@dot 0077                       ?_off_digit 0070                   _show_character 0594  
        ??_OSCILLATOR_Initialize 0070           __end_of_show_character 07F1                    __size_of_main 00D7  
                       _on_digit 0472                      ??_off_digit 0070                  ?_show_character 0073  
        __size_of_WDT_Initialize 0004          ?_PIN_MANAGER_Initialize 0070   __end_of_PIN_MANAGER_Initialize 0427  
            show_character@digit 0074              show_character@group 0078  
